   1               		.file	"HIDParser.c"
   2               	__SREG__ = 0x3f
   3               	__SP_H__ = 0x3e
   4               	__SP_L__ = 0x3d
   5               	__CCP__  = 0x34
   6               	__tmp_reg__ = 0
   7               	__zero_reg__ = 1
   8               		.global __do_copy_data
   9               		.global __do_clear_bss
  17               	.Ltext0:
  18               		.section	.text.USB_GetHIDReportItemInfo,"ax",@progbits
  19               	.global	USB_GetHIDReportItemInfo
  21               	USB_GetHIDReportItemInfo:
  22               	.LFB24:
  23               	.LSM0:
  24               	.LVL0:
  25 0000 CF92      		push r12
  26 0002 DF92      		push r13
  27 0004 EF92      		push r14
  28 0006 FF92      		push r15
  29 0008 0F93      		push r16
  30 000a 1F93      		push r17
  31 000c CF93      		push r28
  32 000e DF93      		push r29
  33               	/* prologue: function */
  34               	/* frame size = 0 */
  35 0010 6C01      		movw r12,r24
  36 0012 EB01      		movw r28,r22
  37               	.LSM1:
  38 0014 6115      		cp r22,__zero_reg__
  39 0016 7105      		cpc r23,__zero_reg__
  40 0018 01F4      		brne .+2
  41 001a 00C0      		rjmp .L2
  42               	.LVL1:
  43               	.LSM2:
  44 001c 2885      		ldd r18,Y+8
  45               	.LSM3:
  46 001e E880      		ld r14,Y
  47 0020 F980      		ldd r15,Y+1
  48               	.LVL2:
  49               	.LSM4:
  50 0022 9D81      		ldd r25,Y+5
  51 0024 9923      		tst r25
  52 0026 01F0      		breq .L3
  53               	.LVL3:
  54               	.LSM5:
  55 0028 F601      		movw r30,r12
  56 002a 8081      		ld r24,Z
  57 002c 9817      		cp r25,r24
  58 002e 01F0      		breq .+2
  59 0030 00C0      		rjmp .L2
  60               	.LSM6:
  61 0032 0894      		sec
  62 0034 C11C      		adc r12,__zero_reg__
  63 0036 D11C      		adc r13,__zero_reg__
  64               	.LVL4:
  65               	.L3:
  66               	.LSM7:
  67 0038 022F      		mov r16,r18
  68               	.LVL5:
  69 003a 10E0      		ldi r17,lo8(0)
  70               	.LVL6:
  71               	.LSM8:
  72 003c 8AA1      		ldd r24,Y+34
  73 003e 9BA1      		ldd r25,Y+35
  74 0040 ACA1      		ldd r26,Y+36
  75 0042 BDA1      		ldd r27,Y+37
  76 0044 8EA3      		std Y+38,r24
  77 0046 9FA3      		std Y+39,r25
  78 0048 A8A7      		std Y+40,r26
  79 004a B9A7      		std Y+41,r27
  80               	.LSM9:
  81 004c 1AA2      		std Y+34,__zero_reg__
  82 004e 1BA2      		std Y+35,__zero_reg__
  83 0050 1CA2      		std Y+36,__zero_reg__
  84 0052 1DA2      		std Y+37,__zero_reg__
  85 0054 41E0      		ldi r20,lo8(1)
  86 0056 50E0      		ldi r21,hi8(1)
  87 0058 60E0      		ldi r22,hlo8(1)
  88 005a 70E0      		ldi r23,hhi8(1)
  89               	.LVL7:
  90 005c 00C0      		rjmp .L4
  91               	.L6:
  92               	.LSM10:
  93 005e F701      		movw r30,r14
  94 0060 93E0      		ldi r25,3
  95 0062 F695      	1:	lsr r31
  96 0064 E795      		ror r30
  97 0066 9A95      		dec r25
  98 0068 01F4      		brne 1b
  99 006a EC0D      		add r30,r12
 100 006c FD1D      		adc r31,r13
 101 006e 8081      		ld r24,Z
 102 0070 90E0      		ldi r25,lo8(0)
 103 0072 9701      		movw r18,r14
 104 0074 2770      		andi r18,lo8(7)
 105 0076 3070      		andi r19,hi8(7)
 106 0078 00C0      		rjmp 2f
 107 007a 9595      	1:	asr r25
 108 007c 8795      		ror r24
 109 007e 2A95      	2:	dec r18
 110 0080 02F4      		brpl 1b
 111 0082 80FF      		sbrs r24,0
 112 0084 00C0      		rjmp .L5
 113               	.LSM11:
 114 0086 8AA1      		ldd r24,Y+34
 115 0088 9BA1      		ldd r25,Y+35
 116 008a ACA1      		ldd r26,Y+36
 117 008c BDA1      		ldd r27,Y+37
 118 008e 842B      		or r24,r20
 119 0090 952B      		or r25,r21
 120 0092 A62B      		or r26,r22
 121 0094 B72B      		or r27,r23
 122 0096 8AA3      		std Y+34,r24
 123 0098 9BA3      		std Y+35,r25
 124 009a ACA3      		std Y+36,r26
 125 009c BDA3      		std Y+37,r27
 126               	.L5:
 127               	.LSM12:
 128 009e 0894      		sec
 129 00a0 E11C      		adc r14,__zero_reg__
 130 00a2 F11C      		adc r15,__zero_reg__
 131               	.LSM13:
 132 00a4 440F      		lsl r20
 133 00a6 551F      		rol r21
 134 00a8 661F      		rol r22
 135 00aa 771F      		rol r23
 136 00ac 0150      		subi r16,lo8(-(-1))
 137 00ae 1040      		sbci r17,hi8(-(-1))
 138               	.LVL8:
 139               	.L4:
 140               	.LSM14:
 141 00b0 0115      		cp r16,__zero_reg__
 142 00b2 1105      		cpc r17,__zero_reg__
 143 00b4 01F4      		brne .L6
 144 00b6 81E0      		ldi r24,lo8(1)
 145 00b8 00C0      		rjmp .L7
 146               	.LVL9:
 147               	.L2:
 148 00ba 80E0      		ldi r24,lo8(0)
 149               	.LVL10:
 150               	.L7:
 151               	/* epilogue start */
 152               	.LSM15:
 153 00bc DF91      		pop r29
 154 00be CF91      		pop r28
 155 00c0 1F91      		pop r17
 156               	.LVL11:
 157 00c2 0F91      		pop r16
 158               	.LVL12:
 159 00c4 FF90      		pop r15
 160 00c6 EF90      		pop r14
 161               	.LVL13:
 162 00c8 DF90      		pop r13
 163 00ca CF90      		pop r12
 164               	.LVL14:
 165 00cc 0895      		ret
 166               	.LFE24:
 168               		.section	.text.USB_SetHIDReportItemInfo,"ax",@progbits
 169               	.global	USB_SetHIDReportItemInfo
 171               	USB_SetHIDReportItemInfo:
 172               	.LFB25:
 173               	.LSM16:
 174               	.LVL15:
 175 0000 8F92      		push r8
 176 0002 9F92      		push r9
 177 0004 AF92      		push r10
 178 0006 BF92      		push r11
 179 0008 CF92      		push r12
 180 000a DF92      		push r13
 181 000c EF92      		push r14
 182 000e FF92      		push r15
 183 0010 0F93      		push r16
 184 0012 1F93      		push r17
 185 0014 CF93      		push r28
 186 0016 DF93      		push r29
 187               	/* prologue: function */
 188               	/* frame size = 0 */
 189 0018 5C01      		movw r10,r24
 190 001a EB01      		movw r28,r22
 191               	.LSM17:
 192 001c 6115      		cp r22,__zero_reg__
 193 001e 7105      		cpc r23,__zero_reg__
 194 0020 01F4      		brne .+2
 195 0022 00C0      		rjmp .L15
 196               	.LVL16:
 197               	.LSM18:
 198 0024 9885      		ldd r25,Y+8
 199               	.LSM19:
 200 0026 6881      		ld r22,Y
 201 0028 7981      		ldd r23,Y+1
 202               	.LVL17:
 203               	.LSM20:
 204 002a 8D81      		ldd r24,Y+5
 205 002c 8823      		tst r24
 206 002e 01F0      		breq .L11
 207               	.LSM21:
 208 0030 F501      		movw r30,r10
 209 0032 8193      		st Z+,r24
 210 0034 5F01      		movw r10,r30
 211               	.L11:
 212               	.LSM22:
 213 0036 C92E      		mov r12,r25
 214               	.LVL18:
 215 0038 DD24      		clr r13
 216               	.LVL19:
 217               	.LSM23:
 218 003a 8AA1      		ldd r24,Y+34
 219 003c 9BA1      		ldd r25,Y+35
 220 003e ACA1      		ldd r26,Y+36
 221 0040 BDA1      		ldd r27,Y+37
 222 0042 8EA3      		std Y+38,r24
 223 0044 9FA3      		std Y+39,r25
 224 0046 A8A7      		std Y+40,r26
 225 0048 B9A7      		std Y+41,r27
 226 004a 51E0      		ldi r21,lo8(1)
 227 004c E52E      		mov r14,r21
 228 004e F12C      		mov r15,__zero_reg__
 229 0050 012D      		mov r16,__zero_reg__
 230 0052 112D      		mov r17,__zero_reg__
 231               	.LVL20:
 232               	.LSM24:
 233 0054 41E0      		ldi r20,lo8(1)
 234 0056 842E      		mov r8,r20
 235 0058 912C      		mov r9,__zero_reg__
 236 005a 00C0      		rjmp .L12
 237               	.L14:
 238 005c CB01      		movw r24,r22
 239 005e 8770      		andi r24,lo8(7)
 240 0060 9070      		andi r25,hi8(7)
 241 0062 9401      		movw r18,r8
 242 0064 00C0      		rjmp 2f
 243 0066 220F      	1:	lsl r18
 244 0068 331F      		rol r19
 245 006a 8A95      	2:	dec r24
 246 006c 02F4      		brpl 1b
 247 006e C901      		movw r24,r18
 248 0070 AA27      		clr r26
 249 0072 97FD      		sbrc r25,7
 250 0074 A095      		com r26
 251 0076 BA2F      		mov r27,r26
 252 0078 2AA1      		ldd r18,Y+34
 253 007a 3BA1      		ldd r19,Y+35
 254 007c 4CA1      		ldd r20,Y+36
 255 007e 5DA1      		ldd r21,Y+37
 256 0080 8223      		and r24,r18
 257 0082 9323      		and r25,r19
 258 0084 A423      		and r26,r20
 259 0086 B523      		and r27,r21
 260 0088 0097      		sbiw r24,0
 261 008a A105      		cpc r26,__zero_reg__
 262 008c B105      		cpc r27,__zero_reg__
 263 008e 01F0      		breq .L13
 264               	.LSM25:
 265 0090 FB01      		movw r30,r22
 266 0092 33E0      		ldi r19,3
 267 0094 F695      	1:	lsr r31
 268 0096 E795      		ror r30
 269 0098 3A95      		dec r19
 270 009a 01F4      		brne 1b
 271 009c EA0D      		add r30,r10
 272 009e FB1D      		adc r31,r11
 273 00a0 8081      		ld r24,Z
 274 00a2 8E29      		or r24,r14
 275 00a4 8083      		st Z,r24
 276               	.L13:
 277               	.LSM26:
 278 00a6 6F5F      		subi r22,lo8(-(1))
 279 00a8 7F4F      		sbci r23,hi8(-(1))
 280               	.LSM27:
 281 00aa EE0C      		lsl r14
 282 00ac FF1C      		rol r15
 283 00ae 001F      		rol r16
 284 00b0 111F      		rol r17
 285 00b2 0894      		sec
 286 00b4 C108      		sbc r12,__zero_reg__
 287 00b6 D108      		sbc r13,__zero_reg__
 288               	.LVL21:
 289               	.L12:
 290               	.LSM28:
 291 00b8 C114      		cp r12,__zero_reg__
 292 00ba D104      		cpc r13,__zero_reg__
 293 00bc 01F4      		brne .L14
 294               	.LVL22:
 295               	.L15:
 296               	/* epilogue start */
 297               	.LSM29:
 298 00be DF91      		pop r29
 299 00c0 CF91      		pop r28
 300               	.LVL23:
 301 00c2 1F91      		pop r17
 302 00c4 0F91      		pop r16
 303 00c6 FF90      		pop r15
 304 00c8 EF90      		pop r14
 305               	.LVL24:
 306 00ca DF90      		pop r13
 307               	.LVL25:
 308 00cc CF90      		pop r12
 309               	.LVL26:
 310 00ce BF90      		pop r11
 311 00d0 AF90      		pop r10
 312               	.LVL27:
 313 00d2 9F90      		pop r9
 314 00d4 8F90      		pop r8
 315 00d6 0895      		ret
 316               	.LFE25:
 318               		.section	.text.USB_GetHIDReportSize,"ax",@progbits
 319               	.global	USB_GetHIDReportSize
 321               	USB_GetHIDReportSize:
 322               	.LFB26:
 323               	.LSM30:
 324               	.LVL28:
 325               	/* prologue: function */
 326               	/* frame size = 0 */
 327               	.LSM31:
 328 0000 E42F      		mov r30,r20
 329 0002 F0E0      		ldi r31,lo8(0)
 330 0004 EE0F      		lsl r30
 331 0006 FF1F      		rol r31
 332 0008 EF56      		subi r30,lo8(-(913))
 333 000a FC4F      		sbci r31,hi8(-(913))
 334 000c E80F      		add r30,r24
 335 000e F91F      		adc r31,r25
 336 0010 DC01      		movw r26,r24
 337 0012 A057      		subi r26,lo8(-(912))
 338 0014 BC4F      		sbci r27,hi8(-(912))
 339 0016 90E0      		ldi r25,lo8(0)
 340               	.LVL29:
 341               	.L20:
 342               	.LBB2:
 343               	.LBB3:
 344               	.LSM32:
 345 0018 2081      		ld r18,Z
 346 001a 3181      		ldd r19,Z+1
 347               	.LSM33:
 348 001c 8C91      		ld r24,X
 349               	.LVL30:
 350 001e 8617      		cp r24,r22
 351 0020 01F4      		brne .L17
 352               	.LSM34:
 353 0022 40E0      		ldi r20,lo8(0)
 354 0024 50E0      		ldi r21,hi8(0)
 355               	.LVL31:
 356 0026 C901      		movw r24,r18
 357 0028 8770      		andi r24,lo8(7)
 358 002a 9070      		andi r25,hi8(7)
 359 002c 892B      		or r24,r25
 360 002e 01F0      		breq .L18
 361 0030 41E0      		ldi r20,lo8(1)
 362 0032 50E0      		ldi r21,hi8(1)
 363               	.L18:
 364 0034 63E0      		ldi r22,3
 365 0036 3695      	1:	lsr r19
 366 0038 2795      		ror r18
 367 003a 6A95      		dec r22
 368 003c 01F4      		brne 1b
 369               	.LVL32:
 370 003e 240F      		add r18,r20
 371 0040 351F      		adc r19,r21
 372 0042 00C0      		rjmp .L19
 373               	.LVL33:
 374               	.L17:
 375               	.LBE3:
 376               	.LSM35:
 377 0044 9F5F      		subi r25,lo8(-(1))
 378 0046 3796      		adiw r30,7
 379 0048 1796      		adiw r26,7
 380 004a 9A30      		cpi r25,lo8(10)
 381 004c 01F4      		brne .L20
 382 004e 20E0      		ldi r18,lo8(0)
 383 0050 30E0      		ldi r19,hi8(0)
 384               	.LVL34:
 385               	.L19:
 386               	.LBE2:
 387               	.LSM36:
 388 0052 C901      		movw r24,r18
 389               	/* epilogue start */
 390 0054 0895      		ret
 391               	.LFE26:
 393               		.section	.text.USB_ProcessHIDReport,"ax",@progbits
 394               	.global	USB_ProcessHIDReport
 396               	USB_ProcessHIDReport:
 397               	.LFB23:
 398               	.LSM37:
 399               	.LVL35:
 400 0000 2F92      		push r2
 401 0002 3F92      		push r3
 402 0004 4F92      		push r4
 403 0006 5F92      		push r5
 404 0008 6F92      		push r6
 405 000a 7F92      		push r7
 406 000c 8F92      		push r8
 407 000e 9F92      		push r9
 408 0010 AF92      		push r10
 409 0012 BF92      		push r11
 410 0014 CF92      		push r12
 411 0016 DF92      		push r13
 412 0018 EF92      		push r14
 413 001a FF92      		push r15
 414 001c 0F93      		push r16
 415 001e 1F93      		push r17
 416 0020 DF93      		push r29
 417 0022 CF93      		push r28
 418 0024 CDB7      		in r28,__SP_L__
 419 0026 DEB7      		in r29,__SP_H__
 420 0028 C559      		subi r28,lo8(-(-149))
 421 002a D040      		sbci r29,hi8(-(-149))
 422 002c 0FB6      		in __tmp_reg__,__SREG__
 423 002e F894      		cli
 424 0030 DEBF      		out __SP_H__,r29
 425 0032 0FBE      		out __SREG__,__tmp_reg__
 426 0034 CDBF      		out __SP_L__,r28
 427               	/* prologue: function */
 428               	/* frame size = 149 */
 429 0036 CF57      		subi r28,lo8(-129)
 430 0038 DF4F      		sbci r29,hi8(-129)
 431 003a 9983      		std Y+1,r25
 432 003c 8883      		st Y,r24
 433 003e C158      		subi r28,lo8(129)
 434 0040 D040      		sbci r29,hi8(129)
 435 0042 CD57      		subi r28,lo8(-131)
 436 0044 DF4F      		sbci r29,hi8(-131)
 437 0046 7983      		std Y+1,r23
 438 0048 6883      		st Y,r22
 439 004a C358      		subi r28,lo8(131)
 440 004c D040      		sbci r29,hi8(131)
 441 004e 1A01      		movw r2,r20
 442               	.LSM38:
 443 0050 20E9      		ldi r18,lo8(912)
 444 0052 822E      		mov r8,r18
 445 0054 23E0      		ldi r18,hi8(912)
 446 0056 922E      		mov r9,r18
 447               	.LVL36:
 448 0058 840E      		add r8,r20
 449 005a 951E      		adc r9,r21
 450               	.LSM39:
 451 005c 89ED      		ldi r24,lo8(985)
 452 005e 93E0      		ldi r25,hi8(985)
 453               	.LVL37:
 454 0060 DA01      		movw r26,r20
 455 0062 FC01      		movw r30,r24
 456 0064 1D92      		st X+,__zero_reg__
 457 0066 3197      		sbiw r30,1
 458 0068 01F4      		brne .-6
 459               	.LSM40:
 460 006a FE01      		movw r30,r28
 461 006c FB96      		adiw r30,59
 462 006e 8CE1      		ldi r24,lo8(28)
 463 0070 DF01      		movw r26,r30
 464 0072 1D92      		st X+,__zero_reg__
 465 0074 8A95      	        dec r24
 466 0076 01F4      		brne .-6
 467               	.LSM41:
 468 0078 87E0      		ldi r24,lo8(7)
 469 007a D401      		movw r26,r8
 470 007c 1D92      		st X+,__zero_reg__
 471 007e 8A95      	        dec r24
 472 0080 01F4      		brne .-6
 473               	.LSM42:
 474 0082 DA01      		movw r26,r20
 475 0084 A157      		subi r26,lo8(-(911))
 476 0086 BC4F      		sbci r27,hi8(-(911))
 477 0088 81E0      		ldi r24,lo8(1)
 478 008a 8C93      		st X,r24
 479               	.LBB4:
 480               	.LSM43:
 481 008c 9A01      		movw r18,r20
 482 008e 275B      		subi r18,lo8(-(841))
 483 0090 3C4F      		sbci r19,hi8(-(841))
 484 0092 E796      		adiw r28,117-62
 485 0094 3FAF      		std Y+63,r19
 486 0096 2EAF      		std Y+62,r18
 487 0098 E797      		sbiw r28,117-62
 488               	.LVL38:
 489               	.LBB5:
 490               	.LSM44:
 491 009a 405B      		subi r20,lo8(-(848))
 492 009c 5C4F      		sbci r21,hi8(-(848))
 493               	.LVL39:
 494 009e E596      		adiw r28,115-62
 495 00a0 5FAF      		std Y+63,r21
 496 00a2 4EAF      		std Y+62,r20
 497 00a4 E597      		sbiw r28,115-62
 498               	.LVL40:
 499               	.LSM45:
 500 00a6 C101      		movw r24,r2
 501 00a8 8857      		subi r24,lo8(-(904))
 502 00aa 9C4F      		sbci r25,hi8(-(904))
 503 00ac EF96      		adiw r28,125-62
 504 00ae 9FAF      		std Y+63,r25
 505 00b0 8EAF      		std Y+62,r24
 506 00b2 EF97      		sbiw r28,125-62
 507 00b4 6F01      		movw r12,r30
 508               	.LVL41:
 509 00b6 AA24      		clr r10
 510 00b8 BB24      		clr r11
 511               	.LVL42:
 512 00ba ED96      		adiw r28,124-63
 513 00bc 1FAE      		std Y+63,__zero_reg__
 514 00be ED97      		sbiw r28,124-63
 515               	.LVL43:
 516 00c0 EB96      		adiw r28,119-60
 517 00c2 1CAE      		std Y+60,__zero_reg__
 518 00c4 1DAE      		std Y+61,__zero_reg__
 519 00c6 1EAE      		std Y+62,__zero_reg__
 520 00c8 1FAE      		std Y+63,__zero_reg__
 521 00ca EB97      		sbiw r28,119-60
 522 00cc 4424      		clr r4
 523 00ce 5524      		clr r5
 524 00d0 3201      		movw r6,r4
 525               	.LBE5:
 526               	.LBB6:
 527               	.LBB8:
 528               	.LSM46:
 529 00d2 F101      		movw r30,r2
 530 00d4 EA52      		subi r30,lo8(-(982))
 531 00d6 FC4F      		sbci r31,hi8(-(982))
 532 00d8 C657      		subi r28,lo8(-138)
 533 00da DF4F      		sbci r29,hi8(-138)
 534 00dc F983      		std Y+1,r31
 535 00de E883      		st Y,r30
 536 00e0 CA58      		subi r28,lo8(138)
 537 00e2 D040      		sbci r29,hi8(138)
 538               	.LBE8:
 539               	.LBE6:
 540               	.LSM47:
 541 00e4 CC56      		subi r28,lo8(-148)
 542 00e6 DF4F      		sbci r29,hi8(-148)
 543 00e8 D982      		std Y+1,r13
 544 00ea C882      		st Y,r12
 545 00ec C459      		subi r28,lo8(148)
 546 00ee D040      		sbci r29,hi8(148)
 547               	.LSM48:
 548 00f0 9601      		movw r18,r12
 549 00f2 245E      		subi r18,lo8(-(28))
 550 00f4 3F4F      		sbci r19,hi8(-(28))
 551 00f6 C457      		subi r28,lo8(-140)
 552 00f8 DF4F      		sbci r29,hi8(-140)
 553 00fa 3983      		std Y+1,r19
 554 00fc 2883      		st Y,r18
 555 00fe CC58      		subi r28,lo8(140)
 556 0100 D040      		sbci r29,hi8(140)
 557               	.LSM49:
 558 0102 A101      		movw r20,r2
 559 0104 4852      		subi r20,lo8(-(984))
 560 0106 5C4F      		sbci r21,hi8(-(984))
 561 0108 C257      		subi r28,lo8(-142)
 562 010a DF4F      		sbci r29,hi8(-142)
 563 010c 5983      		std Y+1,r21
 564 010e 4883      		st Y,r20
 565 0110 CE58      		subi r28,lo8(142)
 566 0112 D040      		sbci r29,hi8(142)
 567               	.LBB11:
 568               	.LSM50:
 569 0114 C057      		subi r28,lo8(-144)
 570 0116 DF4F      		sbci r29,hi8(-144)
 571 0118 B983      		std Y+1,r27
 572 011a A883      		st Y,r26
 573 011c C059      		subi r28,lo8(144)
 574 011e D040      		sbci r29,hi8(144)
 575 0120 C401      		movw r24,r8
 576 0122 CE56      		subi r28,lo8(-146)
 577 0124 DF4F      		sbci r29,hi8(-146)
 578 0126 8882      		st Y,r8
 579 0128 C259      		subi r28,lo8(146)
 580 012a D040      		sbci r29,hi8(146)
 581               	.LVL44:
 582 012c CD56      		subi r28,lo8(-147)
 583 012e DF4F      		sbci r29,hi8(-147)
 584 0130 9883      		st Y,r25
 585 0132 C359      		subi r28,lo8(147)
 586 0134 D040      		sbci r29,hi8(147)
 587 0136 00C0      		rjmp .L24
 588               	.LVL45:
 589               	.L92:
 590               	.LBE11:
 591               	.LSM51:
 592 0138 CF57      		subi r28,lo8(-129)
 593 013a DF4F      		sbci r29,hi8(-129)
 594 013c A881      		ld r26,Y
 595 013e B981      		ldd r27,Y+1
 596 0140 C158      		subi r28,lo8(129)
 597 0142 D040      		sbci r29,hi8(129)
 598 0144 4D91      		ld r20,X+
 599               	.LVL46:
 600 0146 CF57      		subi r28,lo8(-129)
 601 0148 DF4F      		sbci r29,hi8(-129)
 602 014a B983      		std Y+1,r27
 603 014c A883      		st Y,r26
 604 014e C158      		subi r28,lo8(129)
 605 0150 D040      		sbci r29,hi8(129)
 606               	.LVL47:
 607               	.LSM52:
 608 0152 CD57      		subi r28,lo8(-131)
 609 0154 DF4F      		sbci r29,hi8(-131)
 610 0156 E881      		ld r30,Y
 611 0158 F981      		ldd r31,Y+1
 612 015a C358      		subi r28,lo8(131)
 613 015c D040      		sbci r29,hi8(131)
 614 015e 3197      		sbiw r30,1
 615 0160 CD57      		subi r28,lo8(-131)
 616 0162 DF4F      		sbci r29,hi8(-131)
 617 0164 F983      		std Y+1,r31
 618 0166 E883      		st Y,r30
 619 0168 C358      		subi r28,lo8(131)
 620 016a D040      		sbci r29,hi8(131)
 621               	.LVL48:
 622               	.LSM53:
 623 016c 242F      		mov r18,r20
 624 016e 30E0      		ldi r19,lo8(0)
 625 0170 C158      		subi r28,lo8(-127)
 626 0172 DF4F      		sbci r29,hi8(-127)
 627 0174 3983      		std Y+1,r19
 628 0176 2883      		st Y,r18
 629 0178 CF57      		subi r28,lo8(127)
 630 017a D040      		sbci r29,hi8(127)
 631 017c 2370      		andi r18,lo8(3)
 632 017e 3070      		andi r19,hi8(3)
 633 0180 2230      		cpi r18,2
 634 0182 3105      		cpc r19,__zero_reg__
 635 0184 01F0      		breq .L27
 636 0186 2330      		cpi r18,3
 637 0188 3105      		cpc r19,__zero_reg__
 638 018a 01F0      		breq .L28
 639 018c 2130      		cpi r18,1
 640 018e 3105      		cpc r19,__zero_reg__
 641 0190 01F0      		breq .L26
 642 0192 EE24      		clr r14
 643 0194 FF24      		clr r15
 644 0196 8701      		movw r16,r14
 645               	.LVL49:
 646 0198 00C0      		rjmp .L29
 647               	.L28:
 648               	.LSM54:
 649 019a CF57      		subi r28,lo8(-129)
 650 019c DF4F      		sbci r29,hi8(-129)
 651 019e A881      		ld r26,Y
 652 01a0 B981      		ldd r27,Y+1
 653 01a2 C158      		subi r28,lo8(129)
 654 01a4 D040      		sbci r29,hi8(129)
 655 01a6 ED90      		ld r14,X+
 656 01a8 FD90      		ld r15,X+
 657 01aa 0D91      		ld r16,X+
 658 01ac 1D91      		ld r17,X+
 659               	.LVL50:
 660 01ae CF57      		subi r28,lo8(-129)
 661 01b0 DF4F      		sbci r29,hi8(-129)
 662 01b2 B983      		std Y+1,r27
 663 01b4 A883      		st Y,r26
 664 01b6 C158      		subi r28,lo8(129)
 665 01b8 D040      		sbci r29,hi8(129)
 666               	.LVL51:
 667               	.LSM55:
 668 01ba CD57      		subi r28,lo8(-131)
 669 01bc DF4F      		sbci r29,hi8(-131)
 670 01be E881      		ld r30,Y
 671 01c0 F981      		ldd r31,Y+1
 672 01c2 C358      		subi r28,lo8(131)
 673 01c4 D040      		sbci r29,hi8(131)
 674 01c6 3497      		sbiw r30,4
 675 01c8 00C0      		rjmp .L98
 676               	.L27:
 677               	.LSM56:
 678 01ca CF57      		subi r28,lo8(-129)
 679 01cc DF4F      		sbci r29,hi8(-129)
 680 01ce A881      		ld r26,Y
 681 01d0 B981      		ldd r27,Y+1
 682 01d2 C158      		subi r28,lo8(129)
 683 01d4 D040      		sbci r29,hi8(129)
 684 01d6 8D91      		ld r24,X+
 685 01d8 9D91      		ld r25,X+
 686 01da CF57      		subi r28,lo8(-129)
 687 01dc DF4F      		sbci r29,hi8(-129)
 688 01de B983      		std Y+1,r27
 689 01e0 A883      		st Y,r26
 690 01e2 C158      		subi r28,lo8(129)
 691 01e4 D040      		sbci r29,hi8(129)
 692               	.LVL52:
 693 01e6 7C01      		movw r14,r24
 694               	.LVL53:
 695 01e8 00E0      		ldi r16,lo8(0)
 696 01ea 10E0      		ldi r17,hi8(0)
 697               	.LVL54:
 698               	.LSM57:
 699 01ec CD57      		subi r28,lo8(-131)
 700 01ee DF4F      		sbci r29,hi8(-131)
 701 01f0 E881      		ld r30,Y
 702 01f2 F981      		ldd r31,Y+1
 703 01f4 C358      		subi r28,lo8(131)
 704 01f6 D040      		sbci r29,hi8(131)
 705 01f8 3297      		sbiw r30,2
 706 01fa 00C0      		rjmp .L98
 707               	.L26:
 708               	.LSM58:
 709 01fc CF57      		subi r28,lo8(-129)
 710 01fe DF4F      		sbci r29,hi8(-129)
 711 0200 A881      		ld r26,Y
 712 0202 B981      		ldd r27,Y+1
 713 0204 C158      		subi r28,lo8(129)
 714 0206 D040      		sbci r29,hi8(129)
 715 0208 8D91      		ld r24,X+
 716 020a CF57      		subi r28,lo8(-129)
 717 020c DF4F      		sbci r29,hi8(-129)
 718 020e B983      		std Y+1,r27
 719 0210 A883      		st Y,r26
 720 0212 C158      		subi r28,lo8(129)
 721 0214 D040      		sbci r29,hi8(129)
 722               	.LVL55:
 723 0216 E82E      		mov r14,r24
 724 0218 FF24      		clr r15
 725 021a 00E0      		ldi r16,lo8(0)
 726 021c 10E0      		ldi r17,hi8(0)
 727               	.LSM59:
 728 021e CD57      		subi r28,lo8(-131)
 729 0220 DF4F      		sbci r29,hi8(-131)
 730 0222 E881      		ld r30,Y
 731 0224 F981      		ldd r31,Y+1
 732 0226 C358      		subi r28,lo8(131)
 733 0228 D040      		sbci r29,hi8(131)
 734 022a 3197      		sbiw r30,1
 735               	.L98:
 736 022c CD57      		subi r28,lo8(-131)
 737 022e DF4F      		sbci r29,hi8(-131)
 738 0230 F983      		std Y+1,r31
 739 0232 E883      		st Y,r30
 740 0234 C358      		subi r28,lo8(131)
 741 0236 D040      		sbci r29,hi8(131)
 742               	.LVL56:
 743               	.L29:
 744               	.LSM60:
 745 0238 C158      		subi r28,lo8(-127)
 746 023a DF4F      		sbci r29,hi8(-127)
 747 023c 8881      		ld r24,Y
 748 023e 9981      		ldd r25,Y+1
 749 0240 CF57      		subi r28,lo8(127)
 750 0242 D040      		sbci r29,hi8(127)
 751 0244 8C7F      		andi r24,lo8(252)
 752 0246 9070      		andi r25,hi8(252)
 753 0248 8436      		cpi r24,100
 754 024a 9105      		cpc r25,__zero_reg__
 755 024c 01F4      		brne .+2
 756 024e 00C0      		rjmp .L40
 757 0250 8536      		cpi r24,101
 758 0252 9105      		cpc r25,__zero_reg__
 759 0254 04F4      		brge .L49
 760 0256 8432      		cpi r24,36
 761 0258 9105      		cpc r25,__zero_reg__
 762 025a 01F4      		brne .+2
 763 025c 00C0      		rjmp .L35
 764 025e 8532      		cpi r24,37
 765 0260 9105      		cpc r25,__zero_reg__
 766 0262 04F4      		brge .L50
 767 0264 8830      		cpi r24,8
 768 0266 9105      		cpc r25,__zero_reg__
 769 0268 01F4      		brne .+2
 770 026a 00C0      		rjmp .L32
 771 026c 8930      		cpi r24,9
 772 026e 9105      		cpc r25,__zero_reg__
 773 0270 04F4      		brge .L51
 774 0272 0497      		sbiw r24,4
 775 0274 01F0      		breq .+2
 776 0276 00C0      		rjmp .L30
 777 0278 00C0      		rjmp .L99
 778               	.L51:
 779 027a 8431      		cpi r24,20
 780 027c 9105      		cpc r25,__zero_reg__
 781 027e 01F4      		brne .+2
 782 0280 00C0      		rjmp .L33
 783 0282 4897      		sbiw r24,24
 784 0284 01F0      		breq .+2
 785 0286 00C0      		rjmp .L30
 786 0288 00C0      		rjmp .L100
 787               	.L50:
 788 028a 8433      		cpi r24,52
 789 028c 9105      		cpc r25,__zero_reg__
 790 028e 01F4      		brne .+2
 791 0290 00C0      		rjmp .L37
 792 0292 8533      		cpi r24,53
 793 0294 9105      		cpc r25,__zero_reg__
 794 0296 04F4      		brge .L52
 795 0298 8897      		sbiw r24,40
 796 029a 01F0      		breq .+2
 797 029c 00C0      		rjmp .L30
 798 029e 00C0      		rjmp .L101
 799               	.L52:
 800 02a0 8434      		cpi r24,68
 801 02a2 9105      		cpc r25,__zero_reg__
 802 02a4 01F4      		brne .+2
 803 02a6 00C0      		rjmp .L38
 804 02a8 8435      		cpi r24,84
 805 02aa 9105      		cpc r25,__zero_reg__
 806 02ac 01F0      		breq .+2
 807 02ae 00C0      		rjmp .L30
 808 02b0 00C0      		rjmp .L102
 809               	.L49:
 810 02b2 8439      		cpi r24,148
 811 02b4 9105      		cpc r25,__zero_reg__
 812 02b6 01F4      		brne .+2
 813 02b8 00C0      		rjmp .L44
 814 02ba 8539      		cpi r24,149
 815 02bc 9105      		cpc r25,__zero_reg__
 816 02be 04F4      		brge .L53
 817 02c0 8038      		cpi r24,128
 818 02c2 9105      		cpc r25,__zero_reg__
 819 02c4 01F0      		breq .L42
 820 02c6 8138      		cpi r24,129
 821 02c8 9105      		cpc r25,__zero_reg__
 822 02ca 04F4      		brge .L54
 823 02cc 8437      		cpi r24,116
 824 02ce 9105      		cpc r25,__zero_reg__
 825 02d0 01F0      		breq .+2
 826 02d2 00C0      		rjmp .L30
 827 02d4 00C0      		rjmp .L103
 828               	.L54:
 829 02d6 8438      		cpi r24,132
 830 02d8 9105      		cpc r25,__zero_reg__
 831 02da 01F4      		brne .+2
 832 02dc 00C0      		rjmp .L43
 833 02de 8039      		cpi r24,144
 834 02e0 9105      		cpc r25,__zero_reg__
 835 02e2 01F0      		breq .+2
 836 02e4 00C0      		rjmp .L30
 837 02e6 00C0      		rjmp .L42
 838               	.L53:
 839 02e8 803B      		cpi r24,176
 840 02ea 9105      		cpc r25,__zero_reg__
 841 02ec 01F0      		breq .L42
 842 02ee 813B      		cpi r24,177
 843 02f0 9105      		cpc r25,__zero_reg__
 844 02f2 04F4      		brge .L55
 845 02f4 803A      		cpi r24,160
 846 02f6 9105      		cpc r25,__zero_reg__
 847 02f8 01F4      		brne .+2
 848 02fa 00C0      		rjmp .L45
 849 02fc 843A      		cpi r24,164
 850 02fe 9105      		cpc r25,__zero_reg__
 851 0300 01F0      		breq .+2
 852 0302 00C0      		rjmp .L30
 853 0304 00C0      		rjmp .L104
 854               	.L55:
 855 0306 843B      		cpi r24,180
 856 0308 9105      		cpc r25,__zero_reg__
 857 030a 01F4      		brne .+2
 858 030c 00C0      		rjmp .L47
 859 030e 803C      		cpi r24,192
 860 0310 9105      		cpc r25,__zero_reg__
 861 0312 01F0      		breq .+2
 862 0314 00C0      		rjmp .L30
 863 0316 00C0      		rjmp .L105
 864               	.L100:
 865 0318 F501      		movw r30,r10
 866 031a 2701      		movw r4,r14
 867 031c 3801      		movw r6,r16
 868 031e 00C0      		rjmp .L56
 869               	.LVL57:
 870               	.L42:
 871               	.LBB12:
 872               	.LBB7:
 873               	.LSM61:
 874 0320 CB57      		subi r28,lo8(-133)
 875 0322 DF4F      		sbci r29,hi8(-133)
 876 0324 C882      		st Y,r12
 877 0326 C558      		subi r28,lo8(133)
 878 0328 D040      		sbci r29,hi8(133)
 879 032a CA57      		subi r28,lo8(-134)
 880 032c DF4F      		sbci r29,hi8(-134)
 881 032e D882      		st Y,r13
 882 0330 C658      		subi r28,lo8(134)
 883 0332 D040      		sbci r29,hi8(134)
 884 0334 EC96      		adiw r28,123-63
 885 0336 1FAE      		std Y+63,__zero_reg__
 886 0338 EC97      		sbiw r28,123-63
 887               	.LVL58:
 888               	.LSM62:
 889 033a 4C7F      		andi r20,lo8(-4)
 890 033c C957      		subi r28,lo8(-135)
 891 033e DF4F      		sbci r29,hi8(-135)
 892 0340 4883      		st Y,r20
 893 0342 C758      		subi r28,lo8(135)
 894 0344 D040      		sbci r29,hi8(135)
 895               	.LSM63:
 896 0346 9701      		movw r18,r14
 897               	.LVL59:
 898 0348 2170      		andi r18,lo8(1)
 899 034a 3070      		andi r19,hi8(1)
 900 034c C857      		subi r28,lo8(-136)
 901 034e DF4F      		sbci r29,hi8(-136)
 902 0350 3983      		std Y+1,r19
 903 0352 2883      		st Y,r18
 904 0354 C858      		subi r28,lo8(136)
 905 0356 D040      		sbci r29,hi8(136)
 906 0358 00C0      		rjmp .L57
 907               	.LVL60:
 908               	.L104:
 909               	.LBE7:
 910               	.LBE12:
 911               	.LSM64:
 912 035a C457      		subi r28,lo8(-140)
 913 035c DF4F      		sbci r29,hi8(-140)
 914 035e 4881      		ld r20,Y
 915 0360 5981      		ldd r21,Y+1
 916 0362 CC58      		subi r28,lo8(140)
 917 0364 D040      		sbci r29,hi8(140)
 918               	.LVL61:
 919 0366 C416      		cp r12,r20
 920 0368 D506      		cpc r13,r21
 921 036a 01F4      		brne .L58
 922 036c 81E0      		ldi r24,lo8(1)
 923 036e 00C0      		rjmp .L59
 924               	.L58:
 925               	.LSM65:
 926 0370 D601      		movw r26,r12
 927 0372 5C96      		adiw r26,28
 928 0374 F601      		movw r30,r12
 929 0376 8AE2      		ldi r24,lo8(42)
 930               	.LVL62:
 931               	.L60:
 932 0378 0190      		ld r0,Z+
 933 037a 0D92      		st X+,r0
 934 037c 8150      		subi r24,lo8(-(-1))
 935 037e 01F4      		brne .L60
 936               	.LSM66:
 937 0380 8CE1      		ldi r24,lo8(28)
 938 0382 90E0      		ldi r25,hi8(28)
 939 0384 C80E      		add r12,r24
 940 0386 D91E      		adc r13,r25
 941               	.LVL63:
 942 0388 00C0      		rjmp .L30
 943               	.LVL64:
 944               	.L47:
 945               	.LSM67:
 946 038a CC56      		subi r28,lo8(-148)
 947 038c DF4F      		sbci r29,hi8(-148)
 948 038e A881      		ld r26,Y
 949 0390 B981      		ldd r27,Y+1
 950 0392 C459      		subi r28,lo8(148)
 951 0394 D040      		sbci r29,hi8(148)
 952 0396 CA16      		cp r12,r26
 953 0398 DB06      		cpc r13,r27
 954 039a 01F4      		brne .L61
 955 039c 82E0      		ldi r24,lo8(2)
 956 039e 00C0      		rjmp .L59
 957               	.L61:
 958               	.LSM68:
 959 03a0 E4EE      		ldi r30,lo8(-28)
 960 03a2 FFEF      		ldi r31,hi8(-28)
 961 03a4 CE0E      		add r12,r30
 962 03a6 DF1E      		adc r13,r31
 963 03a8 00C0      		rjmp .L30
 964               	.L99:
 965               	.LSM69:
 966 03aa 2330      		cpi r18,3
 967 03ac 3105      		cpc r19,__zero_reg__
 968 03ae 01F4      		brne .L62
 969               	.LSM70:
 970 03b0 C801      		movw r24,r16
 971 03b2 AA27      		clr r26
 972 03b4 BB27      		clr r27
 973 03b6 F601      		movw r30,r12
 974 03b8 9283      		std Z+2,r25
 975 03ba 8183      		std Z+1,r24
 976               	.L62:
 977               	.LSM71:
 978 03bc D601      		movw r26,r12
 979 03be 1296      		adiw r26,1+1
 980 03c0 FC92      		st X,r15
 981 03c2 EE92      		st -X,r14
 982 03c4 1197      		sbiw r26,1
 983 03c6 00C0      		rjmp .L30
 984               	.L33:
 985               	.LSM72:
 986 03c8 F601      		movw r30,r12
 987 03ca E286      		std Z+10,r14
 988 03cc F386      		std Z+11,r15
 989 03ce 0487      		std Z+12,r16
 990 03d0 1587      		std Z+13,r17
 991 03d2 00C0      		rjmp .L30
 992               	.L35:
 993               	.LSM73:
 994 03d4 D601      		movw r26,r12
 995 03d6 1E96      		adiw r26,14
 996 03d8 ED92      		st X+,r14
 997 03da FD92      		st X+,r15
 998 03dc 0D93      		st X+,r16
 999 03de 1C93      		st X,r17
 1000 03e0 5197      		sbiw r26,14+3
 1001 03e2 00C0      		rjmp .L30
 1002               	.L37:
 1003               	.LSM74:
 1004 03e4 F601      		movw r30,r12
 1005 03e6 E28A      		std Z+18,r14
 1006 03e8 F38A      		std Z+19,r15
 1007 03ea 048B      		std Z+20,r16
 1008 03ec 158B      		std Z+21,r17
 1009 03ee 00C0      		rjmp .L30
 1010               	.L38:
 1011               	.LSM75:
 1012 03f0 D601      		movw r26,r12
 1013 03f2 5696      		adiw r26,22
 1014 03f4 ED92      		st X+,r14
 1015 03f6 FD92      		st X+,r15
 1016 03f8 0D93      		st X+,r16
 1017 03fa 1C93      		st X,r17
 1018 03fc 5997      		sbiw r26,22+3
 1019 03fe 00C0      		rjmp .L30
 1020               	.L102:
 1021               	.LSM76:
 1022 0400 F601      		movw r30,r12
 1023 0402 E186      		std Z+9,r14
 1024 0404 00C0      		rjmp .L30
 1025               	.L40:
 1026               	.LSM77:
 1027 0406 D601      		movw r26,r12
 1028 0408 1596      		adiw r26,5
 1029 040a ED92      		st X+,r14
 1030 040c FD92      		st X+,r15
 1031 040e 0D93      		st X+,r16
 1032 0410 1C93      		st X,r17
 1033 0412 1897      		sbiw r26,5+3
 1034 0414 00C0      		rjmp .L30
 1035               	.L103:
 1036               	.LSM78:
 1037 0416 F601      		movw r30,r12
 1038 0418 E082      		st Z,r14
 1039 041a 00C0      		rjmp .L30
 1040               	.L44:
 1041               	.LSM79:
 1042 041c D601      		movw r26,r12
 1043 041e 5A96      		adiw r26,26
 1044 0420 EC92      		st X,r14
 1045 0422 00C0      		rjmp .L30
 1046               	.L43:
 1047               	.LSM80:
 1048 0424 3E2D      		mov r19,r14
 1049 0426 F601      		movw r30,r12
 1050 0428 E38E      		std Z+27,r14
 1051               	.LSM81:
 1052 042a C257      		subi r28,lo8(-142)
 1053 042c DF4F      		sbci r29,hi8(-142)
 1054 042e A881      		ld r26,Y
 1055 0430 B981      		ldd r27,Y+1
 1056 0432 CE58      		subi r28,lo8(142)
 1057 0434 D040      		sbci r29,hi8(142)
 1058 0436 8C91      		ld r24,X
 1059 0438 8823      		tst r24
 1060 043a 01F4      		brne .+2
 1061 043c 00C0      		rjmp .L63
 1062               	.LBB13:
 1063               	.LSM82:
 1064 043e C057      		subi r28,lo8(-144)
 1065 0440 DF4F      		sbci r29,hi8(-144)
 1066 0442 E881      		ld r30,Y
 1067 0444 F981      		ldd r31,Y+1
 1068 0446 C059      		subi r28,lo8(144)
 1069 0448 D040      		sbci r29,hi8(144)
 1070 044a 2081      		ld r18,Z
 1071 044c CE56      		subi r28,lo8(-146)
 1072 044e DF4F      		sbci r29,hi8(-146)
 1073 0450 8881      		ld r24,Y
 1074 0452 C259      		subi r28,lo8(146)
 1075 0454 D040      		sbci r29,hi8(146)
 1076 0456 CD56      		subi r28,lo8(-147)
 1077 0458 DF4F      		sbci r29,hi8(-147)
 1078 045a 9881      		ld r25,Y
 1079 045c C359      		subi r28,lo8(147)
 1080 045e D040      		sbci r29,hi8(147)
 1081 0460 DC01      		movw r26,r24
 1082 0462 E0E0      		ldi r30,lo8(0)
 1083               	.LVL65:
 1084 0464 00C0      		rjmp .L64
 1085               	.L66:
 1086               	.LSM83:
 1087 0466 8C91      		ld r24,X
 1088 0468 1796      		adiw r26,7
 1089 046a 8317      		cp r24,r19
 1090 046c 01F4      		brne .L65
 1091               	.LSM84:
 1092 046e 87E0      		ldi r24,lo8(7)
 1093 0470 E89F      		mul r30,r24
 1094 0472 4001      		movw r8,r0
 1095 0474 1124      		clr r1
 1096 0476 20E9      		ldi r18,lo8(912)
 1097 0478 33E0      		ldi r19,hi8(912)
 1098 047a 820E      		add r8,r18
 1099 047c 931E      		adc r9,r19
 1100 047e 820C      		add r8,r2
 1101 0480 931C      		adc r9,r3
 1102 0482 00C0      		rjmp .L63
 1103               	.L65:
 1104               	.LSM85:
 1105 0484 EF5F      		subi r30,lo8(-(1))
 1106               	.L64:
 1107 0486 E217      		cp r30,r18
 1108 0488 00F0      		brlo .L66
 1109               	.LBE13:
 1110               	.LSM86:
 1111 048a 2A30      		cpi r18,lo8(10)
 1112 048c 01F4      		brne .L67
 1113 048e 87E0      		ldi r24,lo8(7)
 1114 0490 00C0      		rjmp .L59
 1115               	.L67:
 1116               	.LSM87:
 1117 0492 87E0      		ldi r24,lo8(7)
 1118 0494 289F      		mul r18,r24
 1119 0496 4001      		movw r8,r0
 1120 0498 1124      		clr r1
 1121 049a 40E9      		ldi r20,lo8(912)
 1122 049c 53E0      		ldi r21,hi8(912)
 1123               	.LVL66:
 1124 049e 840E      		add r8,r20
 1125 04a0 951E      		adc r9,r21
 1126 04a2 820C      		add r8,r2
 1127 04a4 931C      		adc r9,r3
 1128 04a6 2F5F      		subi r18,lo8(-(1))
 1129 04a8 C057      		subi r28,lo8(-144)
 1130 04aa DF4F      		sbci r29,hi8(-144)
 1131 04ac A881      		ld r26,Y
 1132 04ae B981      		ldd r27,Y+1
 1133 04b0 C059      		subi r28,lo8(144)
 1134 04b2 D040      		sbci r29,hi8(144)
 1135 04b4 2C93      		st X,r18
 1136               	.LSM88:
 1137 04b6 F401      		movw r30,r8
 1138               	.LVL67:
 1139 04b8 1192      		st Z+,__zero_reg__
 1140 04ba 8A95      	        dec r24
 1141 04bc 01F4      		brne .-6
 1142               	.LVL68:
 1143               	.L63:
 1144               	.LSM89:
 1145 04be E1E0      		ldi r30,lo8(1)
 1146               	.LVL69:
 1147 04c0 C257      		subi r28,lo8(-142)
 1148 04c2 DF4F      		sbci r29,hi8(-142)
 1149 04c4 A881      		ld r26,Y
 1150 04c6 B981      		ldd r27,Y+1
 1151 04c8 CE58      		subi r28,lo8(142)
 1152 04ca D040      		sbci r29,hi8(142)
 1153 04cc EC93      		st X,r30
 1154               	.LSM90:
 1155 04ce D601      		movw r26,r12
 1156 04d0 5B96      		adiw r26,27
 1157 04d2 8C91      		ld r24,X
 1158 04d4 F401      		movw r30,r8
 1159 04d6 8083      		st Z,r24
 1160 04d8 00C0      		rjmp .L30
 1161               	.L32:
 1162               	.LSM91:
 1163 04da ED96      		adiw r28,124-63
 1164 04dc FFAD      		ldd r31,Y+63
 1165 04de ED97      		sbiw r28,124-63
 1166               	.LVL70:
 1167 04e0 F830      		cpi r31,lo8(8)
 1168 04e2 01F4      		brne .L68
 1169 04e4 86E0      		ldi r24,lo8(6)
 1170 04e6 00C0      		rjmp .L59
 1171               	.L68:
 1172               	.LSM92:
 1173 04e8 ED96      		adiw r28,124-63
 1174 04ea 2FAD      		ldd r18,Y+63
 1175 04ec ED97      		sbiw r28,124-63
 1176 04ee E22F      		mov r30,r18
 1177               	.LVL71:
 1178 04f0 F0E0      		ldi r31,lo8(0)
 1179               	.LVL72:
 1180 04f2 EE0F      		lsl r30
 1181 04f4 FF1F      		rol r31
 1182               	.LVL73:
 1183 04f6 41E0      		ldi r20,lo8(1)
 1184 04f8 50E0      		ldi r21,hi8(1)
 1185               	.LVL74:
 1186 04fa 4C0F      		add r20,r28
 1187 04fc 5D1F      		adc r21,r29
 1188 04fe E40F      		add r30,r20
 1189 0500 F51F      		adc r31,r21
 1190               	.LVL75:
 1191 0502 F182      		std Z+1,r15
 1192 0504 E082      		st Z,r14
 1193 0506 2F5F      		subi r18,lo8(-(1))
 1194 0508 ED96      		adiw r28,124-63
 1195 050a 2FAF      		std Y+63,r18
 1196 050c ED97      		sbiw r28,124-63
 1197               	.LVL76:
 1198 050e 00C0      		rjmp .L30
 1199               	.LVL77:
 1200               	.L101:
 1201               	.LSM93:
 1202 0510 F501      		movw r30,r10
 1203 0512 EB96      		adiw r28,119-60
 1204 0514 ECAE      		std Y+60,r14
 1205 0516 FDAE      		std Y+61,r15
 1206 0518 0EAF      		std Y+62,r16
 1207 051a 1FAF      		std Y+63,r17
 1208 051c EB97      		sbiw r28,119-60
 1209 051e 00C0      		rjmp .L56
 1210               	.LVL78:
 1211               	.L45:
 1212               	.LSM94:
 1213 0520 A114      		cp r10,__zero_reg__
 1214 0522 B104      		cpc r11,__zero_reg__
 1215 0524 01F4      		brne .L69
 1216 0526 E796      		adiw r28,117-62
 1217 0528 EEAD      		ldd r30,Y+62
 1218 052a FFAD      		ldd r31,Y+63
 1219 052c E797      		sbiw r28,117-62
 1220 052e 00C0      		rjmp .L70
 1221               	.LVL79:
 1222               	.L69:
 1223 0530 E596      		adiw r28,115-62
 1224 0532 EEAD      		ldd r30,Y+62
 1225 0534 FFAD      		ldd r31,Y+63
 1226 0536 E597      		sbiw r28,115-62
 1227 0538 00C0      		rjmp .L71
 1228               	.LVL80:
 1229               	.L73:
 1230               	.LBB14:
 1231               	.LSM95:
 1232 053a EF96      		adiw r28,125-62
 1233 053c 8EAD      		ldd r24,Y+62
 1234 053e 9FAD      		ldd r25,Y+63
 1235 0540 EF97      		sbiw r28,125-62
 1236 0542 E817      		cp r30,r24
 1237 0544 F907      		cpc r31,r25
 1238 0546 01F4      		brne .L72
 1239 0548 85E0      		ldi r24,lo8(5)
 1240 054a 00C0      		rjmp .L59
 1241               	.L72:
 1242               	.LSM96:
 1243 054c 3796      		adiw r30,7
 1244               	.LVL81:
 1245               	.L71:
 1246               	.LSM97:
 1247 054e 8581      		ldd r24,Z+5
 1248 0550 9681      		ldd r25,Z+6
 1249 0552 892B      		or r24,r25
 1250 0554 01F4      		brne .L73
 1251               	.LSM98:
 1252 0556 B682      		std Z+6,r11
 1253 0558 A582      		std Z+5,r10
 1254               	.L70:
 1255               	.LBE14:
 1256               	.LSM99:
 1257 055a E082      		st Z,r14
 1258               	.LSM100:
 1259 055c D601      		movw r26,r12
 1260 055e 1196      		adiw r26,1
 1261 0560 8D91      		ld r24,X+
 1262 0562 9C91      		ld r25,X
 1263 0564 1297      		sbiw r26,1+1
 1264 0566 9283      		std Z+2,r25
 1265 0568 8183      		std Z+1,r24
 1266               	.LSM101:
 1267 056a ED96      		adiw r28,124-63
 1268 056c BFAD      		ldd r27,Y+63
 1269 056e ED97      		sbiw r28,124-63
 1270 0570 BB23      		tst r27
 1271 0572 01F0      		breq .L74
 1272               	.LSM102:
 1273 0574 8981      		ldd r24,Y+1
 1274 0576 9A81      		ldd r25,Y+2
 1275 0578 9483      		std Z+4,r25
 1276 057a 8383      		std Z+3,r24
 1277 057c DE01      		movw r26,r28
 1278 057e 1196      		adiw r26,1
 1279               	.LBB15:
 1280               	.LSM103:
 1281 0580 ED96      		adiw r28,124-63
 1282 0582 4FAD      		ldd r20,Y+63
 1283 0584 ED97      		sbiw r28,124-63
 1284               	.LVL82:
 1285 0586 242F      		mov r18,r20
 1286 0588 30E0      		ldi r19,lo8(0)
 1287 058a 220F      		lsl r18
 1288 058c 331F      		rol r19
 1289               	.LVL83:
 1290 058e 2A0F      		add r18,r26
 1291 0590 3B1F      		adc r19,r27
 1292 0592 00C0      		rjmp .L75
 1293               	.L76:
 1294               	.LSM104:
 1295 0594 1296      		adiw r26,2
 1296 0596 8D91      		ld r24,X+
 1297 0598 9C91      		ld r25,X
 1298 059a 1397      		sbiw r26,2+1
 1299 059c 8D93      		st X+,r24
 1300 059e 9D93      		st X+,r25
 1301               	.L75:
 1302               	.LSM105:
 1303 05a0 A217      		cp r26,r18
 1304 05a2 B307      		cpc r27,r19
 1305 05a4 01F4      		brne .L76
 1306               	.LBE15:
 1307               	.LSM106:
 1308 05a6 ED96      		adiw r28,124-63
 1309 05a8 9FAD      		ldd r25,Y+63
 1310 05aa ED97      		sbiw r28,124-63
 1311 05ac 9150      		subi r25,lo8(-(-1))
 1312 05ae ED96      		adiw r28,124-63
 1313 05b0 9FAF      		std Y+63,r25
 1314 05b2 ED97      		sbiw r28,124-63
 1315               	.LVL84:
 1316 05b4 00C0      		rjmp .L56
 1317               	.LVL85:
 1318               	.L74:
 1319               	.LSM107:
 1320 05b6 EB96      		adiw r28,119-60
 1321 05b8 2CAD      		ldd r18,Y+60
 1322 05ba 3DAD      		ldd r19,Y+61
 1323 05bc 4EAD      		ldd r20,Y+62
 1324 05be 5FAD      		ldd r21,Y+63
 1325 05c0 EB97      		sbiw r28,119-60
 1326 05c2 2415      		cp r18,r4
 1327 05c4 3505      		cpc r19,r5
 1328 05c6 4605      		cpc r20,r6
 1329 05c8 5705      		cpc r21,r7
 1330 05ca 00F4      		brsh .+2
 1331 05cc 00C0      		rjmp .L56
 1332               	.LSM108:
 1333 05ce 5482      		std Z+4,r5
 1334 05d0 4382      		std Z+3,r4
 1335 05d2 0894      		sec
 1336 05d4 411C      		adc r4,__zero_reg__
 1337 05d6 511C      		adc r5,__zero_reg__
 1338 05d8 611C      		adc r6,__zero_reg__
 1339 05da 711C      		adc r7,__zero_reg__
 1340 05dc 00C0      		rjmp .L56
 1341               	.LVL86:
 1342               	.L105:
 1343               	.LSM109:
 1344 05de A114      		cp r10,__zero_reg__
 1345 05e0 B104      		cpc r11,__zero_reg__
 1346 05e2 01F4      		brne .L77
 1347 05e4 84E0      		ldi r24,lo8(4)
 1348 05e6 00C0      		rjmp .L59
 1349               	.L77:
 1350               	.LSM110:
 1351 05e8 D501      		movw r26,r10
 1352 05ea 1596      		adiw r26,5
 1353 05ec ED91      		ld r30,X+
 1354 05ee FC91      		ld r31,X
 1355 05f0 1697      		sbiw r26,5+1
 1356               	.LVL87:
 1357 05f2 00C0      		rjmp .L56
 1358               	.LVL88:
 1359               	.L90:
 1360               	.LBB16:
 1361               	.LBB10:
 1362               	.LSM111:
 1363 05f4 DE01      		movw r26,r28
 1364 05f6 5996      		adiw r26,25
 1365 05f8 CB57      		subi r28,lo8(-133)
 1366 05fa DF4F      		sbci r29,hi8(-133)
 1367 05fc 8881      		ld r24,Y
 1368 05fe C558      		subi r28,lo8(133)
 1369 0600 D040      		sbci r29,hi8(133)
 1370 0602 CA57      		subi r28,lo8(-134)
 1371 0604 DF4F      		sbci r29,hi8(-134)
 1372 0606 9881      		ld r25,Y
 1373 0608 C658      		subi r28,lo8(134)
 1374 060a D040      		sbci r29,hi8(134)
 1375 060c 9C01      		movw r18,r24
 1376 060e F901      		movw r30,r18
 1377 0610 8AE1      		ldi r24,lo8(26)
 1378               	.L78:
 1379 0612 0190      		ld r0,Z+
 1380 0614 0D92      		st X+,r0
 1381 0616 8150      		subi r24,lo8(-(-1))
 1382 0618 01F4      		brne .L78
 1383               	.LSM112:
 1384 061a FD8A      		std Y+21,r15
 1385 061c EC8A      		std Y+20,r14
 1386               	.LSM113:
 1387 061e B88E      		std Y+24,r11
 1388 0620 AF8A      		std Y+23,r10
 1389               	.LSM114:
 1390 0622 F601      		movw r30,r12
 1391 0624 838D      		ldd r24,Z+27
 1392 0626 8E8B      		std Y+22,r24
 1393               	.LSM115:
 1394 0628 ED96      		adiw r28,124-63
 1395 062a FFAD      		ldd r31,Y+63
 1396 062c ED97      		sbiw r28,124-63
 1397 062e FF23      		tst r31
 1398 0630 01F0      		breq .L79
 1399               	.LSM116:
 1400 0632 4981      		ldd r20,Y+1
 1401 0634 5A81      		ldd r21,Y+2
 1402               	.LVL89:
 1403 0636 FE01      		movw r30,r28
 1404 0638 3196      		adiw r30,1
 1405               	.LBB9:
 1406               	.LSM117:
 1407 063a ED96      		adiw r28,124-63
 1408 063c 8FAD      		ldd r24,Y+63
 1409 063e ED97      		sbiw r28,124-63
 1410 0640 282F      		mov r18,r24
 1411 0642 30E0      		ldi r19,lo8(0)
 1412 0644 220F      		lsl r18
 1413 0646 331F      		rol r19
 1414 0648 2E0F      		add r18,r30
 1415 064a 3F1F      		adc r19,r31
 1416 064c 00C0      		rjmp .L80
 1417               	.L81:
 1418               	.LSM118:
 1419 064e 8281      		ldd r24,Z+2
 1420 0650 9381      		ldd r25,Z+3
 1421 0652 8193      		st Z+,r24
 1422 0654 9193      		st Z+,r25
 1423               	.L80:
 1424               	.LSM119:
 1425 0656 E217      		cp r30,r18
 1426 0658 F307      		cpc r31,r19
 1427 065a 01F4      		brne .L81
 1428               	.LBE9:
 1429               	.LSM120:
 1430 065c 5D8F      		std Y+29,r21
 1431 065e 4C8F      		std Y+28,r20
 1432               	.LSM121:
 1433 0660 ED96      		adiw r28,124-63
 1434 0662 BFAD      		ldd r27,Y+63
 1435 0664 ED97      		sbiw r28,124-63
 1436 0666 B150      		subi r27,lo8(-(-1))
 1437 0668 ED96      		adiw r28,124-63
 1438 066a BFAF      		std Y+63,r27
 1439 066c ED97      		sbiw r28,124-63
 1440               	.LVL90:
 1441 066e 00C0      		rjmp .L82
 1442               	.LVL91:
 1443               	.L79:
 1444               	.LSM122:
 1445 0670 EB96      		adiw r28,119-60
 1446 0672 2CAD      		ldd r18,Y+60
 1447 0674 3DAD      		ldd r19,Y+61
 1448 0676 4EAD      		ldd r20,Y+62
 1449 0678 5FAD      		ldd r21,Y+63
 1450 067a EB97      		sbiw r28,119-60
 1451 067c 2415      		cp r18,r4
 1452 067e 3505      		cpc r19,r5
 1453 0680 4605      		cpc r20,r6
 1454 0682 5705      		cpc r21,r7
 1455 0684 00F0      		brlo .L82
 1456               	.LSM123:
 1457 0686 5D8E      		std Y+29,r5
 1458 0688 4C8E      		std Y+28,r4
 1459 068a 0894      		sec
 1460 068c 411C      		adc r4,__zero_reg__
 1461 068e 511C      		adc r5,__zero_reg__
 1462 0690 611C      		adc r6,__zero_reg__
 1463 0692 711C      		adc r7,__zero_reg__
 1464               	.L82:
 1465               	.LSM124:
 1466 0694 C957      		subi r28,lo8(-135)
 1467 0696 DF4F      		sbci r29,hi8(-135)
 1468 0698 3881      		ld r19,Y
 1469 069a C758      		subi r28,lo8(135)
 1470 069c D040      		sbci r29,hi8(135)
 1471 069e 3038      		cpi r19,lo8(-128)
 1472 06a0 01F4      		brne .L83
 1473               	.LSM125:
 1474 06a2 1B8A      		std Y+19,__zero_reg__
 1475 06a4 00C0      		rjmp .L84
 1476               	.L83:
 1477               	.LSM126:
 1478 06a6 C957      		subi r28,lo8(-135)
 1479 06a8 DF4F      		sbci r29,hi8(-135)
 1480 06aa 4881      		ld r20,Y
 1481 06ac C758      		subi r28,lo8(135)
 1482 06ae D040      		sbci r29,hi8(135)
 1483               	.LVL92:
 1484 06b0 4039      		cpi r20,lo8(-112)
 1485 06b2 01F4      		brne .L85
 1486               	.LSM127:
 1487 06b4 51E0      		ldi r21,lo8(1)
 1488 06b6 5B8B      		std Y+19,r21
 1489 06b8 00C0      		rjmp .L84
 1490               	.L85:
 1491               	.LSM128:
 1492 06ba 82E0      		ldi r24,lo8(2)
 1493 06bc 8B8B      		std Y+19,r24
 1494               	.LVL93:
 1495               	.L84:
 1496               	.LSM129:
 1497 06be EB89      		ldd r30,Y+19
 1498 06c0 F0E0      		ldi r31,lo8(0)
 1499 06c2 EE0F      		lsl r30
 1500 06c4 FF1F      		rol r31
 1501 06c6 E80D      		add r30,r8
 1502 06c8 F91D      		adc r31,r9
 1503 06ca 8181      		ldd r24,Z+1
 1504 06cc 9281      		ldd r25,Z+2
 1505 06ce 9A8B      		std Y+18,r25
 1506 06d0 898B      		std Y+17,r24
 1507               	.LSM130:
 1508 06d2 D601      		movw r26,r12
 1509 06d4 2C91      		ld r18,X
 1510 06d6 8181      		ldd r24,Z+1
 1511 06d8 9281      		ldd r25,Z+2
 1512 06da 820F      		add r24,r18
 1513 06dc 911D      		adc r25,__zero_reg__
 1514 06de 9283      		std Z+2,r25
 1515 06e0 8183      		std Z+1,r24
 1516               	.LSM131:
 1517 06e2 EB89      		ldd r30,Y+19
 1518 06e4 F0E0      		ldi r31,lo8(0)
 1519 06e6 EE0F      		lsl r30
 1520 06e8 FF1F      		rol r31
 1521 06ea E80D      		add r30,r8
 1522 06ec F91D      		adc r31,r9
 1523 06ee C657      		subi r28,lo8(-138)
 1524 06f0 DF4F      		sbci r29,hi8(-138)
 1525 06f2 A881      		ld r26,Y
 1526 06f4 B981      		ldd r27,Y+1
 1527 06f6 CA58      		subi r28,lo8(138)
 1528 06f8 D040      		sbci r29,hi8(138)
 1529 06fa 2D91      		ld r18,X+
 1530 06fc 3C91      		ld r19,X
 1531 06fe 8181      		ldd r24,Z+1
 1532 0700 9281      		ldd r25,Z+2
 1533 0702 8217      		cp r24,r18
 1534 0704 9307      		cpc r25,r19
 1535 0706 00F4      		brsh .L86
 1536 0708 C901      		movw r24,r18
 1537               	.L86:
 1538 070a C657      		subi r28,lo8(-138)
 1539 070c DF4F      		sbci r29,hi8(-138)
 1540 070e E881      		ld r30,Y
 1541 0710 F981      		ldd r31,Y+1
 1542 0712 CA58      		subi r28,lo8(138)
 1543 0714 D040      		sbci r29,hi8(138)
 1544 0716 9183      		std Z+1,r25
 1545 0718 8083      		st Z,r24
 1546               	.LSM132:
 1547 071a D101      		movw r26,r2
 1548 071c 8C91      		ld r24,X
 1549 071e 8431      		cpi r24,lo8(20)
 1550 0720 01F4      		brne .L87
 1551 0722 83E0      		ldi r24,lo8(3)
 1552 0724 00C0      		rjmp .L59
 1553               	.L87:
 1554               	.LSM133:
 1555 0726 BAE2      		ldi r27,lo8(42)
 1556 0728 8B9F      		mul r24,r27
 1557 072a F001      		movw r30,r0
 1558 072c 1124      		clr r1
 1559 072e 3196      		adiw r30,1
 1560 0730 E20D      		add r30,r2
 1561 0732 F31D      		adc r31,r3
 1562 0734 DE01      		movw r26,r28
 1563 0736 5196      		adiw r26,17
 1564 0738 8AE2      		ldi r24,lo8(42)
 1565               	.L88:
 1566 073a 0D90      		ld r0,X+
 1567 073c 0192      		st Z+,r0
 1568 073e 8150      		subi r24,lo8(-(-1))
 1569 0740 01F4      		brne .L88
 1570               	.LSM134:
 1571 0742 C857      		subi r28,lo8(-136)
 1572 0744 DF4F      		sbci r29,hi8(-136)
 1573 0746 E881      		ld r30,Y
 1574 0748 F981      		ldd r31,Y+1
 1575 074a C858      		subi r28,lo8(136)
 1576 074c D040      		sbci r29,hi8(136)
 1577 074e EF2B      		or r30,r31
 1578 0750 01F4      		brne .L89
 1579 0752 CE01      		movw r24,r28
 1580 0754 4196      		adiw r24,17
 1581 0756 0E94 0000 		call CALLBACK_HIDParser_FilterHIDReportItem
 1582               	.LVL94:
 1583 075a 8823      		tst r24
 1584 075c 01F0      		breq .L89
 1585               	.LSM135:
 1586 075e D101      		movw r26,r2
 1587 0760 8C91      		ld r24,X
 1588 0762 8F5F      		subi r24,lo8(-(1))
 1589 0764 8C93      		st X,r24
 1590               	.LVL95:
 1591               	.L89:
 1592               	.LBE10:
 1593               	.LSM136:
 1594 0766 EC96      		adiw r28,123-63
 1595 0768 BFAD      		ldd r27,Y+63
 1596 076a EC97      		sbiw r28,123-63
 1597 076c BF5F      		subi r27,lo8(-(1))
 1598 076e EC96      		adiw r28,123-63
 1599 0770 BFAF      		std Y+63,r27
 1600 0772 EC97      		sbiw r28,123-63
 1601               	.LVL96:
 1602               	.L57:
 1603 0774 F601      		movw r30,r12
 1604 0776 828D      		ldd r24,Z+26
 1605 0778 EC96      		adiw r28,123-63
 1606 077a FFAD      		ldd r31,Y+63
 1607 077c EC97      		sbiw r28,123-63
 1608               	.LVL97:
 1609 077e F817      		cp r31,r24
 1610 0780 00F4      		brsh .+2
 1611 0782 00C0      		rjmp .L90
 1612               	.LVL98:
 1613               	.L30:
 1614 0784 F501      		movw r30,r10
 1615               	.LVL99:
 1616               	.L56:
 1617               	.LBE16:
 1618               	.LSM137:
 1619 0786 C158      		subi r28,lo8(-127)
 1620 0788 DF4F      		sbci r29,hi8(-127)
 1621 078a 2881      		ld r18,Y
 1622 078c 3981      		ldd r19,Y+1
 1623 078e CF57      		subi r28,lo8(127)
 1624 0790 D040      		sbci r29,hi8(127)
 1625 0792 2C70      		andi r18,lo8(12)
 1626 0794 3070      		andi r19,hi8(12)
 1627 0796 232B      		or r18,r19
 1628 0798 01F4      		brne .L91
 1629 079a ED96      		adiw r28,124-63
 1630 079c 1FAE      		std Y+63,__zero_reg__
 1631 079e ED97      		sbiw r28,124-63
 1632               	.LVL100:
 1633 07a0 EB96      		adiw r28,119-60
 1634 07a2 1CAE      		std Y+60,__zero_reg__
 1635 07a4 1DAE      		std Y+61,__zero_reg__
 1636 07a6 1EAE      		std Y+62,__zero_reg__
 1637 07a8 1FAE      		std Y+63,__zero_reg__
 1638 07aa EB97      		sbiw r28,119-60
 1639 07ac 4424      		clr r4
 1640 07ae 5524      		clr r5
 1641 07b0 3201      		movw r6,r4
 1642               	.L91:
 1643 07b2 5F01      		movw r10,r30
 1644               	.LVL101:
 1645               	.L24:
 1646               	.LBE4:
 1647               	.LSM138:
 1648 07b4 CD57      		subi r28,lo8(-131)
 1649 07b6 DF4F      		sbci r29,hi8(-131)
 1650 07b8 4881      		ld r20,Y
 1651 07ba 5981      		ldd r21,Y+1
 1652 07bc C358      		subi r28,lo8(131)
 1653 07be D040      		sbci r29,hi8(131)
 1654               	.LVL102:
 1655 07c0 452B      		or r20,r21
 1656 07c2 01F0      		breq .+2
 1657 07c4 00C0      		rjmp .L92
 1658               	.LSM139:
 1659 07c6 D101      		movw r26,r2
 1660 07c8 8C91      		ld r24,X
 1661 07ca 8823      		tst r24
 1662 07cc 01F0      		breq .L93
 1663 07ce 80E0      		ldi r24,lo8(0)
 1664 07d0 00C0      		rjmp .L59
 1665               	.L93:
 1666 07d2 88E0      		ldi r24,lo8(8)
 1667               	.LVL103:
 1668               	.L59:
 1669               	/* epilogue start */
 1670               	.LSM140:
 1671 07d4 CB56      		subi r28,lo8(-(149))
 1672 07d6 DF4F      		sbci r29,hi8(-(149))
 1673 07d8 0FB6      		in __tmp_reg__,__SREG__
 1674 07da F894      		cli
 1675 07dc DEBF      		out __SP_H__,r29
 1676 07de 0FBE      		out __SREG__,__tmp_reg__
 1677 07e0 CDBF      		out __SP_L__,r28
 1678 07e2 CF91      		pop r28
 1679 07e4 DF91      		pop r29
 1680 07e6 1F91      		pop r17
 1681 07e8 0F91      		pop r16
 1682               	.LVL104:
 1683 07ea FF90      		pop r15
 1684               	.LVL105:
 1685 07ec EF90      		pop r14
 1686               	.LVL106:
 1687 07ee DF90      		pop r13
 1688               	.LVL107:
 1689 07f0 CF90      		pop r12
 1690               	.LVL108:
 1691 07f2 BF90      		pop r11
 1692 07f4 AF90      		pop r10
 1693               	.LVL109:
 1694 07f6 9F90      		pop r9
 1695 07f8 8F90      		pop r8
 1696               	.LVL110:
 1697 07fa 7F90      		pop r7
 1698 07fc 6F90      		pop r6
 1699 07fe 5F90      		pop r5
 1700 0800 4F90      		pop r4
 1701 0802 3F90      		pop r3
 1702 0804 2F90      		pop r2
 1703               	.LVL111:
 1704 0806 0895      		ret
 1705               	.LFE23:
 1755               	.Letext0:
DEFINED SYMBOLS
                            *ABS*:00000000 HIDParser.c
C:\Users\Ryan\AppData\Local\Temp/ccVx07o3.s:2      *ABS*:0000003f __SREG__
C:\Users\Ryan\AppData\Local\Temp/ccVx07o3.s:3      *ABS*:0000003e __SP_H__
C:\Users\Ryan\AppData\Local\Temp/ccVx07o3.s:4      *ABS*:0000003d __SP_L__
C:\Users\Ryan\AppData\Local\Temp/ccVx07o3.s:5      *ABS*:00000034 __CCP__
C:\Users\Ryan\AppData\Local\Temp/ccVx07o3.s:6      *ABS*:00000000 __tmp_reg__
C:\Users\Ryan\AppData\Local\Temp/ccVx07o3.s:7      *ABS*:00000001 __zero_reg__
C:\Users\Ryan\AppData\Local\Temp/ccVx07o3.s:21     .text.USB_GetHIDReportItemInfo:00000000 USB_GetHIDReportItemInfo
C:\Users\Ryan\AppData\Local\Temp/ccVx07o3.s:171    .text.USB_SetHIDReportItemInfo:00000000 USB_SetHIDReportItemInfo
C:\Users\Ryan\AppData\Local\Temp/ccVx07o3.s:321    .text.USB_GetHIDReportSize:00000000 USB_GetHIDReportSize
C:\Users\Ryan\AppData\Local\Temp/ccVx07o3.s:396    .text.USB_ProcessHIDReport:00000000 USB_ProcessHIDReport

UNDEFINED SYMBOLS
__do_copy_data
__do_clear_bss
CALLBACK_HIDParser_FilterHIDReportItem
