   1               		.file	"Caterina.c"
   2               	__SREG__ = 0x3f
   3               	__SP_H__ = 0x3e
   4               	__SP_L__ = 0x3d
   5               	__CCP__  = 0x34
   6               	__tmp_reg__ = 0
   7               	__zero_reg__ = 1
   8               		.global __do_copy_data
   9               		.global __do_clear_bss
  17               	.Ltext0:
  18               		.section	.text.StartSketch,"ax",@progbits
  19               	.global	StartSketch
  21               	StartSketch:
  22               	.LFB101:
  23               	.LSM0:
  24               	/* prologue: function */
  25               	/* frame size = 0 */
  26               	.LSM1:
  27               	/* #APP */
  28               	 ;  73 "Caterina.c" 1
  29 0000 F894      		cli
  30               	 ;  0 "" 2
  31               	.LSM2:
  32               	/* #NOAPP */
  33 0002 1092 6F00 		sts 111,__zero_reg__
  34               	.LSM3:
  35 0006 1092 8100 		sts 129,__zero_reg__
  36               	.LSM4:
  37 000a 1092 8500 		sts 133,__zero_reg__
  38               	.LSM5:
  39 000e 1092 8400 		sts 132,__zero_reg__
  40               	.LSM6:
  41 0012 81E0      		ldi r24,lo8(1)
  42 0014 85BF      		out 85-32,r24
  43               	.LSM7:
  44 0016 15BE      		out 85-32,__zero_reg__
  45               	.LSM8:
  46 0018 85B1      		in r24,37-32
  47 001a 8F67      		ori r24,lo8(127)
  48 001c 85B9      		out 37-32,r24
  49               	.LSM9:
  50 001e 85B1      		in r24,37-32
  51 0020 8F6D      		ori r24,lo8(-33)
  52 0022 85B9      		out 37-32,r24
  53               	.LSM10:
  54 0024 85B1      		in r24,37-32
  55 0026 8F6B      		ori r24,lo8(-65)
  56 0028 85B9      		out 37-32,r24
  57               	.LSM11:
  58               	/* #APP */
  59               	 ;  90 "Caterina.c" 1
  60 002a 0C94 0000 		jmp 0x0000
  61               	 ;  0 "" 2
  62               	/* epilogue start */
  63               	.LSM12:
  64               	/* #NOAPP */
  65 002e 0895      		ret
  66               	.LFE101:
  68               		.section	.text.LEDPulse,"ax",@progbits
  69               	.global	LEDPulse
  71               	LEDPulse:
  72               	.LFB102:
  73               	.LSM13:
  74               	/* prologue: function */
  75               	/* frame size = 0 */
  76               	.LSM14:
  77 0000 2091 0000 		lds r18,LLEDPulse
  78 0004 3091 0000 		lds r19,(LLEDPulse)+1
  79 0008 2F5F      		subi r18,lo8(-(1))
  80 000a 3F4F      		sbci r19,hi8(-(1))
  81 000c 3093 0000 		sts (LLEDPulse)+1,r19
  82 0010 2093 0000 		sts LLEDPulse,r18
  83               	.LSM15:
  84 0014 932F      		mov r25,r19
  85               	.LVL0:
  86               	.LSM16:
  87 0016 37FF      		sbrs r19,7
  88 0018 00C0      		rjmp .L4
  89               	.LSM17:
  90 001a 8EEF      		ldi r24,lo8(-2)
  91 001c 831B      		sub r24,r19
  92 001e 982F      		mov r25,r24
  93               	.L4:
  94               	.LSM18:
  95 0020 990F      		lsl r25
  96 0022 9217      		cp r25,r18
  97 0024 00F4      		brsh .L5
  98               	.LSM19:
  99 0026 85B1      		in r24,37-32
 100 0028 8F67      		ori r24,lo8(127)
 101 002a 00C0      		rjmp .L8
 102               	.L5:
 103               	.LSM20:
 104 002c 85B1      		in r24,37-32
 105 002e 8078      		andi r24,lo8(-128)
 106               	.L8:
 107 0030 85B9      		out 37-32,r24
 108 0032 0895      		ret
 109               	.LFE102:
 111               		.section	.text.__vector_17,"ax",@progbits
 112               	.global	__vector_17
 114               	__vector_17:
 115               	.LFB105:
 116               	.LSM21:
 117 0000 1F92      		push __zero_reg__
 118 0002 0F92      		push r0
 119 0004 0FB6      		in r0,__SREG__
 120 0006 0F92      		push r0
 121 0008 1124      		clr __zero_reg__
 122 000a 2F93      		push r18
 123 000c 8F93      		push r24
 124 000e 9F93      		push r25
 125 0010 EF93      		push r30
 126 0012 FF93      		push r31
 127               	/* prologue: Signal */
 128               	/* frame size = 0 */
 129               	.LSM22:
 130 0014 1092 8500 		sts 133,__zero_reg__
 131               	.LSM23:
 132 0018 1092 8400 		sts 132,__zero_reg__
 133               	.LSM24:
 134 001c 8091 0000 		lds r24,TxLEDPulse
 135 0020 9091 0000 		lds r25,(TxLEDPulse)+1
 136 0024 0097      		sbiw r24,0
 137 0026 01F0      		breq .L10
 138 0028 0197      		sbiw r24,1
 139 002a 9093 0000 		sts (TxLEDPulse)+1,r25
 140 002e 8093 0000 		sts TxLEDPulse,r24
 141 0032 892B      		or r24,r25
 142 0034 01F4      		brne .L10
 143               	.LSM25:
 144 0036 85B1      		in r24,37-32
 145 0038 8F6D      		ori r24,lo8(-33)
 146 003a 85B9      		out 37-32,r24
 147               	.L10:
 148               	.LSM26:
 149 003c 8091 0000 		lds r24,RxLEDPulse
 150 0040 9091 0000 		lds r25,(RxLEDPulse)+1
 151 0044 0097      		sbiw r24,0
 152 0046 01F0      		breq .L11
 153 0048 0197      		sbiw r24,1
 154 004a 9093 0000 		sts (RxLEDPulse)+1,r25
 155 004e 8093 0000 		sts RxLEDPulse,r24
 156 0052 892B      		or r24,r25
 157 0054 01F4      		brne .L11
 158               	.LSM27:
 159 0056 85B1      		in r24,37-32
 160 0058 8F6B      		ori r24,lo8(-65)
 161 005a 85B9      		out 37-32,r24
 162               	.L11:
 163               	.LBB86:
 164               	.LSM28:
 165 005c E0E0      		ldi r30,lo8(0)
 166 005e F0E0      		ldi r31,hi8(0)
 167               	.LVL1:
 168               	/* #APP */
 169               	 ;  209 "Caterina.c" 1
 170 0060 8591      		lpm r24, Z+
 171 0062 9491      		lpm r25, Z
 172               		
 173               	 ;  0 "" 2
 174               	.LVL2:
 175               	/* #NOAPP */
 176               	.LBE86:
 177 0064 8F5F      		subi r24,lo8(-1)
 178 0066 9F4F      		sbci r25,hi8(-1)
 179 0068 01F0      		breq .L13
 180               	.LSM29:
 181 006a 8091 0000 		lds r24,Timeout
 182 006e 9091 0000 		lds r25,(Timeout)+1
 183               	.LVL3:
 184 0072 0196      		adiw r24,1
 185 0074 9093 0000 		sts (Timeout)+1,r25
 186 0078 8093 0000 		sts Timeout,r24
 187               	.LVL4:
 188               	.L13:
 189               	/* epilogue start */
 190               	.LSM30:
 191 007c FF91      		pop r31
 192 007e EF91      		pop r30
 193               	.LVL5:
 194 0080 9F91      		pop r25
 195 0082 8F91      		pop r24
 196               	.LVL6:
 197 0084 2F91      		pop r18
 198 0086 0F90      		pop r0
 199 0088 0FBE      		out __SREG__,r0
 200 008a 0F90      		pop r0
 201 008c 1F90      		pop __zero_reg__
 202 008e 1895      		reti
 203               	.LFE105:
 205               		.section	.text.FetchNextCommandByte,"ax",@progbits
 207               	FetchNextCommandByte:
 208               	.LFB109:
 209               	.LSM31:
 210               	/* prologue: function */
 211               	/* frame size = 0 */
 212               	.LBB87:
 213               	.LBB88:
 214               	.LSM32:
 215 0000 84E0      		ldi r24,lo8(4)
 216 0002 8093 E900 		sts 233,r24
 217 0006 00C0      		rjmp .L15
 218               	.L19:
 219               	.LBE88:
 220               	.LBE87:
 221               	.LBB89:
 222               	.LBB90:
 223               	.LSM33:
 224 0008 8091 E800 		lds r24,232
 225 000c 8B77      		andi r24,lo8(123)
 226 000e 8093 E800 		sts 232,r24
 227 0012 00C0      		rjmp .L16
 228               	.L18:
 229               	.LBE90:
 230               	.LBE89:
 231               	.LSM34:
 232 0014 8EB3      		in r24,62-32
 233 0016 8823      		tst r24
 234 0018 01F0      		breq .L17
 235               	.L16:
 236               	.LBB91:
 237               	.LBB92:
 238               	.LSM35:
 239 001a 8091 E800 		lds r24,232
 240               	.LBE92:
 241               	.LBE91:
 242               	.LSM36:
 243 001e 82FF      		sbrs r24,2
 244 0020 00C0      		rjmp .L18
 245               	.L15:
 246               	.LBB93:
 247               	.LBB94:
 248               	.LSM37:
 249 0022 8091 E800 		lds r24,232
 250               	.LBE94:
 251               	.LBE93:
 252               	.LSM38:
 253 0026 85FF      		sbrs r24,5
 254 0028 00C0      		rjmp .L19
 255               	.LBB95:
 256               	.LBB96:
 257               	.LSM39:
 258 002a 8091 F100 		lds r24,241
 259               	.L17:
 260               	.LBE96:
 261               	.LBE95:
 262               	.LSM40:
 263 002e 0895      		ret
 264               	.LFE109:
 266               		.section	.text.WriteNextResponseByte,"ax",@progbits
 268               	WriteNextResponseByte:
 269               	.LFB110:
 270               	.LSM41:
 271               	.LVL7:
 272               	/* prologue: function */
 273               	/* frame size = 0 */
 274 0000 982F      		mov r25,r24
 275               	.LBB97:
 276               	.LBB98:
 277               	.LSM42:
 278 0002 83E0      		ldi r24,lo8(3)
 279               	.LVL8:
 280 0004 8093 E900 		sts 233,r24
 281               	.LBE98:
 282               	.LBE97:
 283               	.LBB99:
 284               	.LBB100:
 285               	.LSM43:
 286 0008 8091 E800 		lds r24,232
 287               	.LBE100:
 288               	.LBE99:
 289               	.LSM44:
 290 000c 85FD      		sbrc r24,5
 291 000e 00C0      		rjmp .L23
 292               	.LBB101:
 293               	.LBB102:
 294               	.LSM45:
 295 0010 8091 E800 		lds r24,232
 296 0014 8E77      		andi r24,lo8(126)
 297 0016 8093 E800 		sts 232,r24
 298 001a 00C0      		rjmp .L24
 299               	.L26:
 300               	.LBE102:
 301               	.LBE101:
 302               	.LSM46:
 303 001c 8EB3      		in r24,62-32
 304 001e 8823      		tst r24
 305 0020 01F0      		breq .L27
 306               	.L24:
 307               	.LBB103:
 308               	.LBB104:
 309               	.LSM47:
 310 0022 8091 E800 		lds r24,232
 311               	.LBE104:
 312               	.LBE103:
 313               	.LSM48:
 314 0026 80FF      		sbrs r24,0
 315 0028 00C0      		rjmp .L26
 316               	.L23:
 317               	.LBB105:
 318               	.LBB106:
 319               	.LSM49:
 320 002a 9093 F100 		sts 241,r25
 321               	.LBE106:
 322               	.LBE105:
 323               	.LSM50:
 324 002e 85B1      		in r24,37-32
 325 0030 8072      		andi r24,lo8(32)
 326 0032 85B9      		out 37-32,r24
 327               	.LSM51:
 328 0034 84E6      		ldi r24,lo8(100)
 329 0036 90E0      		ldi r25,hi8(100)
 330 0038 9093 0000 		sts (TxLEDPulse)+1,r25
 331 003c 8093 0000 		sts TxLEDPulse,r24
 332               	.L27:
 333 0040 0895      		ret
 334               	.LFE110:
 336               		.data
 337               	.LC0:
 338 0000 4341 5445 		.string	"CATERINA"
 338      5249 4E41 
 338      00
 339               		.section	.text.CDC_Task,"ax",@progbits
 340               	.global	CDC_Task
 342               	CDC_Task:
 343               	.LFB111:
 344               	.LSM52:
 345 0000 4F92      		push r4
 346 0002 5F92      		push r5
 347 0004 6F92      		push r6
 348 0006 7F92      		push r7
 349 0008 8F92      		push r8
 350 000a 9F92      		push r9
 351 000c AF92      		push r10
 352 000e BF92      		push r11
 353 0010 CF92      		push r12
 354 0012 DF92      		push r13
 355 0014 EF92      		push r14
 356 0016 FF92      		push r15
 357 0018 0F93      		push r16
 358 001a 1F93      		push r17
 359 001c CF93      		push r28
 360 001e DF93      		push r29
 361               	/* prologue: function */
 362               	/* frame size = 0 */
 363               	.LBB147:
 364               	.LBB148:
 365               	.LSM53:
 366 0020 84E0      		ldi r24,lo8(4)
 367 0022 8093 E900 		sts 233,r24
 368               	.LBE148:
 369               	.LBE147:
 370               	.LBB149:
 371               	.LBB150:
 372               	.LSM54:
 373 0026 8091 E800 		lds r24,232
 374               	.LBE150:
 375               	.LBE149:
 376               	.LSM55:
 377 002a 82FF      		sbrs r24,2
 378 002c 00C0      		rjmp .L88
 379               	.LSM56:
 380 002e 85B1      		in r24,37-32
 381 0030 8074      		andi r24,lo8(64)
 382 0032 85B9      		out 37-32,r24
 383               	.LSM57:
 384 0034 84E6      		ldi r24,lo8(100)
 385 0036 90E0      		ldi r25,hi8(100)
 386 0038 9093 0000 		sts (RxLEDPulse)+1,r25
 387 003c 8093 0000 		sts RxLEDPulse,r24
 388               	.LSM58:
 389 0040 0E94 0000 		call FetchNextCommandByte
 390 0044 182F      		mov r17,r24
 391               	.LVL9:
 392               	.LSM59:
 393 0046 8534      		cpi r24,lo8(69)
 394 0048 01F4      		brne .L30
 395               	.LVL10:
 396               	.LSM60:
 397 004a 8CE4      		ldi r24,lo8(7500)
 398 004c 9DE1      		ldi r25,hi8(7500)
 399               	.LVL11:
 400 004e 9093 0000 		sts (Timeout)+1,r25
 401 0052 8093 0000 		sts Timeout,r24
 402               	.L31:
 403               	.LSM61:
 404 0056 07B6      		in __tmp_reg__,87-32
 405 0058 00FC      		sbrc __tmp_reg__,0
 406 005a 00C0      		rjmp .L31
 407               	.L89:
 408 005c F999      		sbic 63-32,1
 409 005e 00C0      		rjmp .L89
 410 0060 81E1      		ldi r24,lo8(17)
 411               	/* #APP */
 412               	 ;  493 "Caterina.c" 1
 413 0062 8093 5700 		sts 87, r24
 414 0066 E895      		spm
 415               		
 416               	 ;  0 "" 2
 417               	/* #NOAPP */
 418 0068 00C0      		rjmp .L107
 419               	.LVL12:
 420               	.L30:
 421               	.LSM62:
 422 006a 8435      		cpi r24,lo8(84)
 423 006c 01F4      		brne .L34
 424               	.LSM63:
 425 006e 0E94 0000 		call FetchNextCommandByte
 426               	.LVL13:
 427               	.L107:
 428               	.LSM64:
 429 0072 8DE0      		ldi r24,lo8(13)
 430 0074 00C0      		rjmp .L106
 431               	.LVL14:
 432               	.L34:
 433               	.LSM65:
 434 0076 8C34      		cpi r24,lo8(76)
 435 0078 01F0      		breq .L107
 436 007a 8035      		cpi r24,lo8(80)
 437 007c 01F0      		breq .L107
 438               	.L36:
 439               	.LSM66:
 440 007e 8437      		cpi r24,lo8(116)
 441 0080 01F4      		brne .L37
 442               	.LSM67:
 443 0082 84E4      		ldi r24,lo8(68)
 444               	.LVL15:
 445 0084 0E94 0000 		call WriteNextResponseByte
 446               	.LSM68:
 447 0088 80E0      		ldi r24,lo8(0)
 448 008a 00C0      		rjmp .L106
 449               	.LVL16:
 450               	.L37:
 451               	.LSM69:
 452 008c 8136      		cpi r24,lo8(97)
 453 008e 01F4      		brne .L38
 454               	.LSM70:
 455 0090 89E5      		ldi r24,lo8(89)
 456               	.LVL17:
 457 0092 00C0      		rjmp .L106
 458               	.LVL18:
 459               	.L38:
 460               	.LSM71:
 461 0094 8134      		cpi r24,lo8(65)
 462 0096 01F4      		brne .L39
 463               	.LSM72:
 464 0098 0E94 0000 		call FetchNextCommandByte
 465               	.LVL19:
 466 009c 182F      		mov r17,r24
 467               	.LVL20:
 468               	.LSM73:
 469 009e 0E94 0000 		call FetchNextCommandByte
 470 00a2 90E0      		ldi r25,lo8(0)
 471 00a4 880F      		lsl r24
 472 00a6 991F      		rol r25
 473 00a8 AA27      		clr r26
 474 00aa 97FD      		sbrc r25,7
 475 00ac A095      		com r26
 476 00ae BA2F      		mov r27,r26
 477 00b0 312F      		mov r19,r17
 478 00b2 330F      		lsl r19
 479 00b4 20E0      		ldi r18,lo8(0)
 480 00b6 4427      		clr r20
 481 00b8 37FD      		sbrc r19,7
 482 00ba 4095      		com r20
 483 00bc 542F      		mov r21,r20
 484 00be 822B      		or r24,r18
 485 00c0 932B      		or r25,r19
 486 00c2 A42B      		or r26,r20
 487 00c4 B52B      		or r27,r21
 488 00c6 8093 0000 		sts CurrAddress,r24
 489 00ca 9093 0000 		sts (CurrAddress)+1,r25
 490 00ce A093 0000 		sts (CurrAddress)+2,r26
 491 00d2 B093 0000 		sts (CurrAddress)+3,r27
 492 00d6 00C0      		rjmp .L107
 493               	.LVL21:
 494               	.L39:
 495               	.LSM74:
 496 00d8 8037      		cpi r24,lo8(112)
 497 00da 01F4      		brne .L40
 498               	.LSM75:
 499 00dc 83E5      		ldi r24,lo8(83)
 500               	.LVL22:
 501 00de 00C0      		rjmp .L106
 502               	.LVL23:
 503               	.L40:
 504               	.LSM76:
 505 00e0 8335      		cpi r24,lo8(83)
 506 00e2 01F4      		brne .L41
 507 00e4 C0E0      		ldi r28,lo8(.LC0)
 508 00e6 D0E0      		ldi r29,hi8(.LC0)
 509               	.L42:
 510               	.LBB151:
 511               	.LSM77:
 512 00e8 8991      		ld r24,Y+
 513               	.LVL24:
 514 00ea 0E94 0000 		call WriteNextResponseByte
 515               	.LSM78:
 516 00ee 20E0      		ldi r18,hi8(.LC0+7)
 517 00f0 C030      		cpi r28,lo8(.LC0+7)
 518 00f2 D207      		cpc r29,r18
 519 00f4 01F4      		brne .L42
 520 00f6 00C0      		rjmp .L33
 521               	.LVL25:
 522               	.L41:
 523               	.LBE151:
 524               	.LSM79:
 525 00f8 8635      		cpi r24,lo8(86)
 526 00fa 01F4      		brne .L43
 527               	.LSM80:
 528 00fc 81E3      		ldi r24,lo8(49)
 529               	.LVL26:
 530 00fe 0E94 0000 		call WriteNextResponseByte
 531               	.LSM81:
 532 0102 80E3      		ldi r24,lo8(48)
 533 0104 00C0      		rjmp .L106
 534               	.LVL27:
 535               	.L43:
 536               	.LSM82:
 537 0106 8337      		cpi r24,lo8(115)
 538 0108 01F4      		brne .L44
 539               	.LSM83:
 540 010a 87E8      		ldi r24,lo8(-121)
 541               	.LVL28:
 542 010c 0E94 0000 		call WriteNextResponseByte
 543               	.LSM84:
 544 0110 85E9      		ldi r24,lo8(-107)
 545 0112 0E94 0000 		call WriteNextResponseByte
 546               	.LSM85:
 547 0116 8EE1      		ldi r24,lo8(30)
 548 0118 00C0      		rjmp .L106
 549               	.LVL29:
 550               	.L44:
 551               	.LSM86:
 552 011a 8536      		cpi r24,lo8(101)
 553 011c 01F4      		brne .L45
 554 011e E0E0      		ldi r30,lo8(0)
 555 0120 F0E0      		ldi r31,hi8(0)
 556               	.LBB152:
 557               	.LSM87:
 558 0122 93E0      		ldi r25,lo8(3)
 559               	.LSM88:
 560 0124 85E0      		ldi r24,lo8(5)
 561               	.LVL30:
 562               	.L48:
 563               	.LSM89:
 564               	/* #APP */
 565               	 ;  557 "Caterina.c" 1
 566 0126 9093 5700 		sts 87, r25
 567 012a E895      		spm
 568               		
 569               	 ;  0 "" 2
 570               	/* #NOAPP */
 571               	.L46:
 572               	.LSM90:
 573 012c 07B6      		in __tmp_reg__,87-32
 574 012e 00FC      		sbrc __tmp_reg__,0
 575 0130 00C0      		rjmp .L46
 576               	.LSM91:
 577               	/* #APP */
 578               	 ;  559 "Caterina.c" 1
 579 0132 8093 5700 		sts 87, r24
 580 0136 E895      		spm
 581               		
 582               	 ;  0 "" 2
 583               	/* #NOAPP */
 584               	.L47:
 585               	.LSM92:
 586 0138 07B6      		in __tmp_reg__,87-32
 587 013a 00FC      		sbrc __tmp_reg__,0
 588 013c 00C0      		rjmp .L47
 589 013e E058      		subi r30,lo8(-(128))
 590 0140 FF4F      		sbci r31,hi8(-(128))
 591               	.LSM93:
 592 0142 A0E7      		ldi r26,hi8(28672)
 593 0144 E030      		cpi r30,lo8(28672)
 594 0146 FA07      		cpc r31,r26
 595 0148 01F4      		brne .L48
 596 014a 00C0      		rjmp .L107
 597               	.LVL31:
 598               	.L45:
 599               	.LBE152:
 600               	.LSM94:
 601 014c 8237      		cpi r24,lo8(114)
 602 014e 01F4      		brne .L49
 603               	.LSM95:
 604 0150 89E0      		ldi r24,lo8(9)
 605               	.LVL32:
 606               	/* #APP */
 607               	 ;  578 "Caterina.c" 1
 608 0152 E1E0      		ldi r30, 1
 609 0154 F0E0      		ldi r31, 0
 610 0156 8093 5700 		sts 87, r24
 611 015a 8491      		lpm r24, Z
 612               		
 613               	 ;  0 "" 2
 614               	/* #NOAPP */
 615 015c 00C0      		rjmp .L106
 616               	.LVL33:
 617               	.L49:
 618               	.LSM96:
 619 015e 8634      		cpi r24,lo8(70)
 620 0160 01F4      		brne .L50
 621               	.LSM97:
 622 0162 89E0      		ldi r24,lo8(9)
 623               	.LVL34:
 624               	/* #APP */
 625               	 ;  582 "Caterina.c" 1
 626 0164 E0E0      		ldi r30, 0
 627 0166 F0E0      		ldi r31, 0
 628 0168 8093 5700 		sts 87, r24
 629 016c 8491      		lpm r24, Z
 630               		
 631               	 ;  0 "" 2
 632               	/* #NOAPP */
 633 016e 00C0      		rjmp .L106
 634               	.LVL35:
 635               	.L50:
 636               	.LSM98:
 637 0170 8E34      		cpi r24,lo8(78)
 638 0172 01F4      		brne .L51
 639               	.LSM99:
 640 0174 89E0      		ldi r24,lo8(9)
 641               	.LVL36:
 642               	/* #APP */
 643               	 ;  586 "Caterina.c" 1
 644 0176 E3E0      		ldi r30, 3
 645 0178 F0E0      		ldi r31, 0
 646 017a 8093 5700 		sts 87, r24
 647 017e 8491      		lpm r24, Z
 648               		
 649               	 ;  0 "" 2
 650               	/* #NOAPP */
 651 0180 00C0      		rjmp .L106
 652               	.LVL37:
 653               	.L51:
 654               	.LSM100:
 655 0182 8135      		cpi r24,lo8(81)
 656 0184 01F4      		brne .L52
 657               	.LSM101:
 658 0186 89E0      		ldi r24,lo8(9)
 659               	.LVL38:
 660               	/* #APP */
 661               	 ;  590 "Caterina.c" 1
 662 0188 E2E0      		ldi r30, 2
 663 018a F0E0      		ldi r31, 0
 664 018c 8093 5700 		sts 87, r24
 665 0190 8491      		lpm r24, Z
 666               		
 667               	 ;  0 "" 2
 668               	/* #NOAPP */
 669 0192 00C0      		rjmp .L106
 670               	.LVL39:
 671               	.L52:
 672               	.LSM102:
 673 0194 8236      		cpi r24,lo8(98)
 674 0196 01F4      		brne .L53
 675               	.LSM103:
 676 0198 89E5      		ldi r24,lo8(89)
 677               	.LVL40:
 678 019a 0E94 0000 		call WriteNextResponseByte
 679               	.LSM104:
 680 019e 80E0      		ldi r24,lo8(0)
 681 01a0 0E94 0000 		call WriteNextResponseByte
 682               	.LSM105:
 683 01a4 80E8      		ldi r24,lo8(-128)
 684 01a6 00C0      		rjmp .L106
 685               	.LVL41:
 686               	.L53:
 687               	.LSM106:
 688 01a8 8234      		cpi r24,lo8(66)
 689 01aa 01F0      		breq .L54
 690 01ac 8736      		cpi r24,lo8(103)
 691 01ae 01F0      		breq .+2
 692 01b0 00C0      		rjmp .L55
 693               	.L54:
 694               	.LSM107:
 695 01b2 1092 0000 		sts (Timeout)+1,__zero_reg__
 696 01b6 1092 0000 		sts Timeout,__zero_reg__
 697               	.LBB153:
 698               	.LSM108:
 699 01ba 0E94 0000 		call FetchNextCommandByte
 700               	.LVL42:
 701 01be 082F      		mov r16,r24
 702               	.LSM109:
 703 01c0 0E94 0000 		call FetchNextCommandByte
 704 01c4 F82E      		mov r15,r24
 705               	.LSM110:
 706 01c6 0E94 0000 		call FetchNextCommandByte
 707 01ca 682E      		mov r6,r24
 708               	.LVL43:
 709               	.LBB154:
 710               	.LSM111:
 711 01cc 8554      		subi r24,lo8(-(-69))
 712 01ce 8230      		cpi r24,lo8(2)
 713 01d0 00F0      		brlo .+2
 714 01d2 00C0      		rjmp .L108
 715               	.L56:
 716               	.LSM112:
 717 01d4 902F      		mov r25,r16
 718               	.LVL44:
 719 01d6 80E0      		ldi r24,lo8(0)
 720               	.LVL45:
 721               	.LSM113:
 722 01d8 8F2C      		mov r8,r15
 723               	.LVL46:
 724 01da 9924      		clr r9
 725               	.LVL47:
 726 01dc 882A      		or r8,r24
 727 01de 992A      		or r9,r25
 728               	.LVL48:
 729               	.LSM114:
 730 01e0 1092 6F00 		sts 111,__zero_reg__
 731 01e4 A090 0000 		lds r10,CurrAddress
 732 01e8 B090 0000 		lds r11,(CurrAddress)+1
 733 01ec C090 0000 		lds r12,(CurrAddress)+2
 734 01f0 D090 0000 		lds r13,(CurrAddress)+3
 735               	.LVL49:
 736               	.LSM115:
 737 01f4 1736      		cpi r17,lo8(103)
 738 01f6 01F0      		breq .+2
 739 01f8 00C0      		rjmp .L57
 740               	.LSM116:
 741 01fa 81E1      		ldi r24,lo8(17)
 742               	/* #APP */
 743               	 ;  308 "Caterina.c" 1
 744 01fc 8093 5700 		sts 87, r24
 745 0200 E895      		spm
 746               		
 747               	 ;  0 "" 2
 748               	/* #NOAPP */
 749 0202 8601      		movw r16,r12
 750 0204 7501      		movw r14,r10
 751 0206 DD24      		clr r13
 752               	.LVL50:
 753               	.LSM117:
 754 0208 CC24      		clr r12
 755 020a C394      		inc r12
 756 020c 00C0      		rjmp .L58
 757               	.L62:
 758               	.LSM118:
 759 020e B6E4      		ldi r27,lo8(70)
 760 0210 6B16      		cp r6,r27
 761 0212 01F4      		brne .L90
 762               	.LBB162:
 763               	.LSM119:
 764 0214 ED2D      		mov r30,r13
 765 0216 F0E0      		ldi r31,lo8(0)
 766               	.LVL51:
 767 0218 EE29      		or r30,r14
 768 021a FF29      		or r31,r15
 769               	.LVL52:
 770               	/* #APP */
 771               	 ;  318 "Caterina.c" 1
 772 021c E491      		lpm r30, Z
 773               		
 774               	 ;  0 "" 2
 775               	.LVL53:
 776               	/* #NOAPP */
 777               	.LBE162:
 778 021e 8E2F      		mov r24,r30
 779 0220 0E94 0000 		call WriteNextResponseByte
 780               	.LVL54:
 781               	.LSM120:
 782 0224 DD20      		tst r13
 783               	.LVL55:
 784 0226 01F0      		breq .L60
 785               	.LSM121:
 786 0228 82E0      		ldi r24,lo8(2)
 787 022a 90E0      		ldi r25,hi8(2)
 788 022c A0E0      		ldi r26,hlo8(2)
 789 022e B0E0      		ldi r27,hhi8(2)
 790 0230 E80E      		add r14,r24
 791 0232 F91E      		adc r15,r25
 792 0234 0A1F      		adc r16,r26
 793 0236 1B1F      		adc r17,r27
 794               	.L60:
 795               	.LSM122:
 796 0238 DC24      		eor r13,r12
 797 023a 00C0      		rjmp .L61
 798               	.L90:
 799               	.LBB160:
 800               	.LBB161:
 801               	.LSM123:
 802 023c F999      		sbic 63-32,1
 803 023e 00C0      		rjmp .L90
 804               	.LSM124:
 805 0240 D801      		movw r26,r16
 806 0242 C701      		movw r24,r14
 807 0244 B695      		lsr r27
 808 0246 A795      		ror r26
 809 0248 9795      		ror r25
 810 024a 8795      		ror r24
 811 024c 92BD      		out (65)+1-32,r25
 812 024e 81BD      		out 65-32,r24
 813               	.LSM125:
 814               	/* #APP */
 815               	 ;  208 "c:/ardupdate/arduino/hardware/tools/avr/lib/gcc/../../avr/include/avr/eeprom.h" 1
 816               		/* START EEPROM READ CRITICAL SECTION */ 
 817 0250 F89A      		sbi 31, 0 
 818 0252 80B5      		in r24, 32 
 819               		/* END EEPROM READ CRITICAL SECTION */ 
 820               		
 821               	 ;  0 "" 2
 822               	.LVL56:
 823               	/* #NOAPP */
 824               	.LBE161:
 825               	.LBE160:
 826               	.LSM126:
 827 0254 0E94 0000 		call WriteNextResponseByte
 828               	.LVL57:
 829               	.LSM127:
 830 0258 82E0      		ldi r24,lo8(2)
 831 025a 90E0      		ldi r25,hi8(2)
 832 025c A0E0      		ldi r26,hlo8(2)
 833 025e B0E0      		ldi r27,hhi8(2)
 834 0260 E80E      		add r14,r24
 835 0262 F91E      		adc r15,r25
 836 0264 0A1F      		adc r16,r26
 837 0266 1B1F      		adc r17,r27
 838               	.L61:
 839 0268 0894      		sec
 840 026a 8108      		sbc r8,__zero_reg__
 841 026c 9108      		sbc r9,__zero_reg__
 842               	.L58:
 843               	.LSM128:
 844 026e 8114      		cp r8,__zero_reg__
 845 0270 9104      		cpc r9,__zero_reg__
 846 0272 01F4      		brne .L62
 847 0274 E092 0000 		sts CurrAddress,r14
 848 0278 F092 0000 		sts (CurrAddress)+1,r15
 849 027c 0093 0000 		sts (CurrAddress)+2,r16
 850 0280 1093 0000 		sts (CurrAddress)+3,r17
 851 0284 00C0      		rjmp .L63
 852               	.LVL58:
 853               	.L57:
 854               	.LBB157:
 855               	.LSM129:
 856 0286 96E4      		ldi r25,lo8(70)
 857 0288 6916      		cp r6,r25
 858 028a 01F0      		breq .+2
 859 028c 00C0      		rjmp .L64
 860               	.LSM130:
 861 028e 83E0      		ldi r24,lo8(3)
 862 0290 F501      		movw r30,r10
 863               	.LVL59:
 864               	/* #APP */
 865               	 ;  343 "Caterina.c" 1
 866 0292 8093 5700 		sts 87, r24
 867 0296 E895      		spm
 868               		
 869               	 ;  0 "" 2
 870               	/* #NOAPP */
 871               	.L65:
 872               	.LBE157:
 873               	.LBE154:
 874               	.LSM131:
 875 0298 07B6      		in __tmp_reg__,87-32
 876 029a 00FC      		sbrc __tmp_reg__,0
 877 029c 00C0      		rjmp .L65
 878 029e 00C0      		rjmp .L64
 879               	.LVL60:
 880               	.L72:
 881               	.LBB166:
 882               	.LBB163:
 883               	.LSM132:
 884 02a0 F6E4      		ldi r31,lo8(70)
 885 02a2 6F16      		cp r6,r31
 886 02a4 01F4      		brne .L66
 887               	.LSM133:
 888 02a6 7720      		tst r7
 889 02a8 01F0      		breq .L67
 890               	.LBE163:
 891               	.LBE166:
 892               	.LSM134:
 893 02aa 0E94 0000 		call FetchNextCommandByte
 894               	.LVL61:
 895               	.LBB167:
 896               	.LBB156:
 897 02ae D82F      		mov r29,r24
 898 02b0 C0E0      		ldi r28,lo8(0)
 899 02b2 852D      		mov r24,r5
 900 02b4 90E0      		ldi r25,lo8(0)
 901               	.LVL62:
 902 02b6 8C2B      		or r24,r28
 903 02b8 9D2B      		or r25,r29
 904               	.LVL63:
 905 02ba F701      		movw r30,r14
 906               	.LVL64:
 907               	/* #APP */
 908               	 ;  355 "Caterina.c" 1
 909 02bc 0C01      		movw  r0, r24
 910 02be 4092 5700 		sts 87, r4
 911 02c2 E895      		spm
 912 02c4 1124      		clr  r1
 913               		
 914               	 ;  0 "" 2
 915               	.LSM135:
 916               	/* #NOAPP */
 917 02c6 82E0      		ldi r24,lo8(2)
 918 02c8 90E0      		ldi r25,hi8(2)
 919 02ca A0E0      		ldi r26,hlo8(2)
 920 02cc B0E0      		ldi r27,hhi8(2)
 921               	.LVL65:
 922 02ce E80E      		add r14,r24
 923 02d0 F91E      		adc r15,r25
 924 02d2 0A1F      		adc r16,r26
 925 02d4 1B1F      		adc r17,r27
 926               	.LVL66:
 927 02d6 00C0      		rjmp .L68
 928               	.LVL67:
 929               	.L67:
 930               	.LBE156:
 931               	.LBE167:
 932               	.LSM136:
 933 02d8 0E94 0000 		call FetchNextCommandByte
 934               	.LVL68:
 935 02dc 582E      		mov r5,r24
 936               	.LVL69:
 937               	.L68:
 938               	.LBB168:
 939               	.LBB164:
 940               	.LSM137:
 941 02de 7424      		eor r7,r4
 942 02e0 00C0      		rjmp .L69
 943               	.L66:
 944               	.LBE164:
 945               	.LBE168:
 946               	.LSM138:
 947 02e2 0E94 0000 		call FetchNextCommandByte
 948               	.LVL70:
 949 02e6 282F      		mov r18,r24
 950               	.L70:
 951               	.LBB169:
 952               	.LBB155:
 953               	.LBB158:
 954               	.LBB159:
 955               	.LSM139:
 956 02e8 F999      		sbic 63-32,1
 957 02ea 00C0      		rjmp .L70
 958               	.LSM140:
 959 02ec 1FBA      		out 63-32,__zero_reg__
 960               	.LSM141:
 961 02ee D801      		movw r26,r16
 962 02f0 C701      		movw r24,r14
 963 02f2 B695      		lsr r27
 964 02f4 A795      		ror r26
 965 02f6 9795      		ror r25
 966 02f8 8795      		ror r24
 967 02fa 92BD      		out (65)+1-32,r25
 968 02fc 81BD      		out 65-32,r24
 969               	.LSM142:
 970 02fe 20BD      		out 64-32,r18
 971               	.LSM143:
 972               	/* #APP */
 973               	 ;  324 "c:/ardupdate/arduino/hardware/tools/avr/lib/gcc/../../avr/include/avr/eeprom.h" 1
 974               		/* START EEPROM WRITE CRITICAL SECTION */
 975 0300 0FB6      		in	r0, 63		
 976 0302 F894      		cli				
 977 0304 FA9A      		sbi	31, 2	
 978 0306 F99A      		sbi	31, 1	
 979 0308 0FBE      		out	63, r0		
 980               		/* END EEPROM WRITE CRITICAL SECTION */
 981               	 ;  0 "" 2
 982               	/* #NOAPP */
 983               	.LBE159:
 984               	.LBE158:
 985               	.LSM144:
 986 030a 82E0      		ldi r24,lo8(2)
 987 030c 90E0      		ldi r25,hi8(2)
 988 030e A0E0      		ldi r26,hlo8(2)
 989 0310 B0E0      		ldi r27,hhi8(2)
 990 0312 E80E      		add r14,r24
 991 0314 F91E      		adc r15,r25
 992 0316 0A1F      		adc r16,r26
 993 0318 1B1F      		adc r17,r27
 994               	.LVL71:
 995               	.L69:
 996 031a 0894      		sec
 997 031c 8108      		sbc r8,__zero_reg__
 998 031e 9108      		sbc r9,__zero_reg__
 999 0320 00C0      		rjmp .L71
 1000               	.LVL72:
 1001               	.L64:
 1002 0322 8601      		movw r16,r12
 1003 0324 7501      		movw r14,r10
 1004 0326 5524      		clr r5
 1005               	.LVL73:
 1006 0328 7724      		clr r7
 1007               	.LVL74:
 1008               	.LSM145:
 1009 032a 4424      		clr r4
 1010 032c 4394      		inc r4
 1011               	.LVL75:
 1012               	.L71:
 1013               	.LSM146:
 1014 032e 8114      		cp r8,__zero_reg__
 1015 0330 9104      		cpc r9,__zero_reg__
 1016 0332 01F0      		breq .+2
 1017 0334 00C0      		rjmp .L72
 1018 0336 E092 0000 		sts CurrAddress,r14
 1019 033a F092 0000 		sts (CurrAddress)+1,r15
 1020 033e 0093 0000 		sts (CurrAddress)+2,r16
 1021 0342 1093 0000 		sts (CurrAddress)+3,r17
 1022               	.LSM147:
 1023 0346 96E4      		ldi r25,lo8(70)
 1024               	.LVL76:
 1025 0348 6916      		cp r6,r25
 1026 034a 01F4      		brne .L73
 1027               	.LSM148:
 1028 034c 85E0      		ldi r24,lo8(5)
 1029 034e F501      		movw r30,r10
 1030               	/* #APP */
 1031               	 ;  381 "Caterina.c" 1
 1032 0350 8093 5700 		sts 87, r24
 1033 0354 E895      		spm
 1034               		
 1035               	 ;  0 "" 2
 1036               	/* #NOAPP */
 1037               	.L74:
 1038               	.LBE155:
 1039               	.LBE169:
 1040               	.LSM149:
 1041 0356 07B6      		in __tmp_reg__,87-32
 1042 0358 00FC      		sbrc __tmp_reg__,0
 1043 035a 00C0      		rjmp .L74
 1044               	.LVL77:
 1045               	.L73:
 1046               	.LBB170:
 1047               	.LBB165:
 1048               	.LSM150:
 1049 035c 8DE0      		ldi r24,lo8(13)
 1050 035e 0E94 0000 		call WriteNextResponseByte
 1051               	.LVL78:
 1052               	.L63:
 1053               	.LBE165:
 1054               	.LSM151:
 1055 0362 82E0      		ldi r24,lo8(2)
 1056 0364 8093 6F00 		sts 111,r24
 1057 0368 00C0      		rjmp .L33
 1058               	.LVL79:
 1059               	.L55:
 1060               	.LBE170:
 1061               	.LBE153:
 1062               	.LSM152:
 1063 036a 8334      		cpi r24,lo8(67)
 1064 036c 01F4      		brne .L75
 1065               	.LSM153:
 1066 036e 0091 0000 		lds r16,CurrAddress
 1067 0372 1091 0000 		lds r17,(CurrAddress)+1
 1068 0376 0E94 0000 		call FetchNextCommandByte
 1069               	.LVL80:
 1070 037a 90E0      		ldi r25,lo8(0)
 1071 037c 21E0      		ldi r18,lo8(1)
 1072 037e F801      		movw r30,r16
 1073               	/* #APP */
 1074               	 ;  613 "Caterina.c" 1
 1075 0380 0C01      		movw  r0, r24
 1076 0382 2093 5700 		sts 87, r18
 1077 0386 E895      		spm
 1078 0388 1124      		clr  r1
 1079               		
 1080               	 ;  0 "" 2
 1081               	/* #NOAPP */
 1082 038a 00C0      		rjmp .L107
 1083               	.LVL81:
 1084               	.L75:
 1085               	.LSM154:
 1086 038c 8336      		cpi r24,lo8(99)
 1087 038e 01F4      		brne .L76
 1088               	.LSM155:
 1089 0390 E090 0000 		lds r14,CurrAddress
 1090 0394 F090 0000 		lds r15,(CurrAddress)+1
 1091 0398 0091 0000 		lds r16,(CurrAddress)+2
 1092 039c 1091 0000 		lds r17,(CurrAddress)+3
 1093 03a0 0E94 0000 		call FetchNextCommandByte
 1094               	.LVL82:
 1095 03a4 F701      		movw r30,r14
 1096 03a6 E160      		ori r30,lo8(1)
 1097 03a8 90E0      		ldi r25,lo8(0)
 1098 03aa 21E0      		ldi r18,lo8(1)
 1099               	/* #APP */
 1100               	 ;  621 "Caterina.c" 1
 1101 03ac 0C01      		movw  r0, r24
 1102 03ae 2093 5700 		sts 87, r18
 1103 03b2 E895      		spm
 1104 03b4 1124      		clr  r1
 1105               		
 1106               	 ;  0 "" 2
 1107               	/* #NOAPP */
 1108 03b6 00C0      		rjmp .L109
 1109               	.LVL83:
 1110               	.L76:
 1111               	.LSM156:
 1112 03b8 8D36      		cpi r24,lo8(109)
 1113 03ba 01F4      		brne .L77
 1114               	.LSM157:
 1115 03bc E091 0000 		lds r30,CurrAddress
 1116 03c0 F091 0000 		lds r31,(CurrAddress)+1
 1117 03c4 85E0      		ldi r24,lo8(5)
 1118               	.LVL84:
 1119               	/* #APP */
 1120               	 ;  632 "Caterina.c" 1
 1121 03c6 8093 5700 		sts 87, r24
 1122 03ca E895      		spm
 1123               		
 1124               	 ;  0 "" 2
 1125               	/* #NOAPP */
 1126               	.L78:
 1127               	.LSM158:
 1128 03cc 07B6      		in __tmp_reg__,87-32
 1129 03ce 00FC      		sbrc __tmp_reg__,0
 1130 03d0 00C0      		rjmp .L78
 1131 03d2 00C0      		rjmp .L107
 1132               	.LVL85:
 1133               	.L77:
 1134               	.LSM159:
 1135 03d4 8235      		cpi r24,lo8(82)
 1136 03d6 01F4      		brne .L79
 1137               	.LBB171:
 1138               	.LBB172:
 1139               	.LSM160:
 1140 03d8 E091 0000 		lds r30,CurrAddress
 1141 03dc F091 0000 		lds r31,(CurrAddress)+1
 1142               	.LVL86:
 1143               	/* #APP */
 1144               	 ;  645 "Caterina.c" 1
 1145 03e0 0591      		lpm r16, Z+
 1146 03e2 1491      		lpm r17, Z
 1147               		
 1148               	 ;  0 "" 2
 1149               	.LVL87:
 1150               	/* #NOAPP */
 1151               	.LBE172:
 1152               	.LSM161:
 1153 03e4 812F      		mov r24,r17
 1154               	.LVL88:
 1155 03e6 0E94 0000 		call WriteNextResponseByte
 1156               	.LVL89:
 1157               	.LSM162:
 1158 03ea 802F      		mov r24,r16
 1159 03ec 00C0      		rjmp .L106
 1160               	.LVL90:
 1161               	.L79:
 1162               	.LBE171:
 1163               	.LSM163:
 1164 03ee 8434      		cpi r24,lo8(68)
 1165 03f0 01F4      		brne .L80
 1166               	.LSM164:
 1167 03f2 E090 0000 		lds r14,CurrAddress
 1168 03f6 F090 0000 		lds r15,(CurrAddress)+1
 1169 03fa 0091 0000 		lds r16,(CurrAddress)+2
 1170 03fe 1091 0000 		lds r17,(CurrAddress)+3
 1171 0402 0E94 0000 		call FetchNextCommandByte
 1172               	.LVL91:
 1173 0406 282F      		mov r18,r24
 1174               	.L81:
 1175               	.LBB173:
 1176               	.LBB174:
 1177               	.LSM165:
 1178 0408 F999      		sbic 63-32,1
 1179 040a 00C0      		rjmp .L81
 1180               	.LSM166:
 1181 040c 1FBA      		out 63-32,__zero_reg__
 1182               	.LSM167:
 1183 040e D801      		movw r26,r16
 1184 0410 C701      		movw r24,r14
 1185 0412 B695      		lsr r27
 1186 0414 A795      		ror r26
 1187 0416 9795      		ror r25
 1188 0418 8795      		ror r24
 1189 041a 92BD      		out (65)+1-32,r25
 1190 041c 81BD      		out 65-32,r24
 1191               	.LSM168:
 1192 041e 20BD      		out 64-32,r18
 1193               	.LSM169:
 1194               	/* #APP */
 1195               	 ;  324 "c:/ardupdate/arduino/hardware/tools/avr/lib/gcc/../../avr/include/avr/eeprom.h" 1
 1196               		/* START EEPROM WRITE CRITICAL SECTION */
 1197 0420 0FB6      		in	r0, 63		
 1198 0422 F894      		cli				
 1199 0424 FA9A      		sbi	31, 2	
 1200 0426 F99A      		sbi	31, 1	
 1201 0428 0FBE      		out	63, r0		
 1202               		/* END EEPROM WRITE CRITICAL SECTION */
 1203               	 ;  0 "" 2
 1204               	/* #NOAPP */
 1205               	.L109:
 1206               	.LBE174:
 1207               	.LBE173:
 1208               	.LSM170:
 1209 042a 82E0      		ldi r24,lo8(2)
 1210 042c 90E0      		ldi r25,hi8(2)
 1211 042e A0E0      		ldi r26,hlo8(2)
 1212 0430 B0E0      		ldi r27,hhi8(2)
 1213 0432 E80E      		add r14,r24
 1214 0434 F91E      		adc r15,r25
 1215 0436 0A1F      		adc r16,r26
 1216 0438 1B1F      		adc r17,r27
 1217 043a E092 0000 		sts CurrAddress,r14
 1218 043e F092 0000 		sts (CurrAddress)+1,r15
 1219 0442 0093 0000 		sts (CurrAddress)+2,r16
 1220 0446 1093 0000 		sts (CurrAddress)+3,r17
 1221 044a 00C0      		rjmp .L107
 1222               	.LVL92:
 1223               	.L80:
 1224               	.LSM171:
 1225 044c 8436      		cpi r24,lo8(100)
 1226 044e 01F4      		brne .L82
 1227               	.LSM172:
 1228 0450 E090 0000 		lds r14,CurrAddress
 1229 0454 F090 0000 		lds r15,(CurrAddress)+1
 1230 0458 0091 0000 		lds r16,(CurrAddress)+2
 1231 045c 1091 0000 		lds r17,(CurrAddress)+3
 1232               	.L83:
 1233               	.LBB175:
 1234               	.LBB176:
 1235               	.LSM173:
 1236 0460 F999      		sbic 63-32,1
 1237 0462 00C0      		rjmp .L83
 1238               	.LSM174:
 1239 0464 D801      		movw r26,r16
 1240 0466 C701      		movw r24,r14
 1241               	.LVL93:
 1242 0468 B695      		lsr r27
 1243 046a A795      		ror r26
 1244 046c 9795      		ror r25
 1245 046e 8795      		ror r24
 1246 0470 92BD      		out (65)+1-32,r25
 1247 0472 81BD      		out 65-32,r24
 1248               	.LSM175:
 1249               	/* #APP */
 1250               	 ;  208 "c:/ardupdate/arduino/hardware/tools/avr/lib/gcc/../../avr/include/avr/eeprom.h" 1
 1251               		/* START EEPROM READ CRITICAL SECTION */ 
 1252 0474 F89A      		sbi 31, 0 
 1253 0476 80B5      		in r24, 32 
 1254               		/* END EEPROM READ CRITICAL SECTION */ 
 1255               		
 1256               	 ;  0 "" 2
 1257               	.LVL94:
 1258               	/* #NOAPP */
 1259               	.LBE176:
 1260               	.LBE175:
 1261               	.LSM176:
 1262 0478 0E94 0000 		call WriteNextResponseByte
 1263               	.LVL95:
 1264               	.LSM177:
 1265 047c 82E0      		ldi r24,lo8(2)
 1266 047e 90E0      		ldi r25,hi8(2)
 1267 0480 A0E0      		ldi r26,hlo8(2)
 1268 0482 B0E0      		ldi r27,hhi8(2)
 1269 0484 E80E      		add r14,r24
 1270 0486 F91E      		adc r15,r25
 1271 0488 0A1F      		adc r16,r26
 1272 048a 1B1F      		adc r17,r27
 1273 048c E092 0000 		sts CurrAddress,r14
 1274 0490 F092 0000 		sts (CurrAddress)+1,r15
 1275 0494 0093 0000 		sts (CurrAddress)+2,r16
 1276 0498 1093 0000 		sts (CurrAddress)+3,r17
 1277 049c 00C0      		rjmp .L33
 1278               	.LVL96:
 1279               	.L82:
 1280               	.LSM178:
 1281 049e 8B31      		cpi r24,lo8(27)
 1282 04a0 01F0      		breq .L33
 1283               	.LVL97:
 1284               	.L108:
 1285               	.LSM179:
 1286 04a2 8FE3      		ldi r24,lo8(63)
 1287               	.LVL98:
 1288               	.L106:
 1289 04a4 0E94 0000 		call WriteNextResponseByte
 1290               	.LVL99:
 1291               	.L33:
 1292               	.LBB177:
 1293               	.LBB178:
 1294               	.LSM180:
 1295 04a8 83E0      		ldi r24,lo8(3)
 1296 04aa 8093 E900 		sts 233,r24
 1297               	.LBE178:
 1298               	.LBE177:
 1299               	.LBB179:
 1300               	.LBB180:
 1301               	.LSM181:
 1302 04ae 9091 E800 		lds r25,232
 1303               	.LBE180:
 1304               	.LBE179:
 1305               	.LBB181:
 1306               	.LBB182:
 1307               	.LSM182:
 1308 04b2 8091 E800 		lds r24,232
 1309 04b6 8E77      		andi r24,lo8(126)
 1310 04b8 8093 E800 		sts 232,r24
 1311               	.LBE182:
 1312               	.LBE181:
 1313               	.LSM183:
 1314 04bc 95FF      		sbrs r25,5
 1315 04be 00C0      		rjmp .L104
 1316 04c0 00C0      		rjmp .L105
 1317               	.L86:
 1318               	.LSM184:
 1319 04c2 8EB3      		in r24,62-32
 1320 04c4 8823      		tst r24
 1321 04c6 01F0      		breq .L88
 1322               	.L104:
 1323               	.LBB183:
 1324               	.LBB184:
 1325               	.LSM185:
 1326 04c8 8091 E800 		lds r24,232
 1327               	.LBE184:
 1328               	.LBE183:
 1329               	.LSM186:
 1330 04cc 80FF      		sbrs r24,0
 1331 04ce 00C0      		rjmp .L86
 1332               	.LBB185:
 1333               	.LBB186:
 1334               	.LSM187:
 1335 04d0 8091 E800 		lds r24,232
 1336 04d4 8E77      		andi r24,lo8(126)
 1337 04d6 8093 E800 		sts 232,r24
 1338 04da 00C0      		rjmp .L105
 1339               	.L87:
 1340               	.LBE186:
 1341               	.LBE185:
 1342               	.LSM188:
 1343 04dc 8EB3      		in r24,62-32
 1344 04de 8823      		tst r24
 1345 04e0 01F0      		breq .L88
 1346               	.L105:
 1347               	.LBB187:
 1348               	.LBB188:
 1349               	.LSM189:
 1350 04e2 8091 E800 		lds r24,232
 1351               	.LBE188:
 1352               	.LBE187:
 1353               	.LSM190:
 1354 04e6 80FF      		sbrs r24,0
 1355 04e8 00C0      		rjmp .L87
 1356               	.LBB189:
 1357               	.LBB190:
 1358               	.LSM191:
 1359 04ea 84E0      		ldi r24,lo8(4)
 1360 04ec 8093 E900 		sts 233,r24
 1361               	.LBE190:
 1362               	.LBE189:
 1363               	.LBB191:
 1364               	.LBB192:
 1365               	.LSM192:
 1366 04f0 8091 E800 		lds r24,232
 1367 04f4 8B77      		andi r24,lo8(123)
 1368 04f6 8093 E800 		sts 232,r24
 1369               	.L88:
 1370               	/* epilogue start */
 1371               	.LBE192:
 1372               	.LBE191:
 1373               	.LSM193:
 1374 04fa DF91      		pop r29
 1375 04fc CF91      		pop r28
 1376 04fe 1F91      		pop r17
 1377               	.LVL100:
 1378 0500 0F91      		pop r16
 1379               	.LVL101:
 1380 0502 FF90      		pop r15
 1381 0504 EF90      		pop r14
 1382 0506 DF90      		pop r13
 1383 0508 CF90      		pop r12
 1384 050a BF90      		pop r11
 1385 050c AF90      		pop r10
 1386               	.LVL102:
 1387 050e 9F90      		pop r9
 1388               	.LVL103:
 1389 0510 8F90      		pop r8
 1390               	.LVL104:
 1391 0512 7F90      		pop r7
 1392               	.LVL105:
 1393 0514 6F90      		pop r6
 1394               	.LVL106:
 1395 0516 5F90      		pop r5
 1396               	.LVL107:
 1397 0518 4F90      		pop r4
 1398 051a 0895      		ret
 1399               	.LFE111:
 1401               		.section	.text.EVENT_USB_Device_ControlRequest,"ax",@progbits
 1402               	.global	EVENT_USB_Device_ControlRequest
 1404               	EVENT_USB_Device_ControlRequest:
 1405               	.LFB107:
 1406               	.LSM194:
 1407               	/* prologue: function */
 1408               	/* frame size = 0 */
 1409               	.LSM195:
 1410 0000 9091 0000 		lds r25,USB_ControlRequest
 1411 0004 892F      		mov r24,r25
 1412 0006 8F77      		andi r24,lo8(127)
 1413 0008 8132      		cpi r24,lo8(33)
 1414 000a 01F4      		brne .L114
 1415               	.LSM196:
 1416 000c 8091 0000 		lds r24,USB_ControlRequest+1
 1417 0010 8032      		cpi r24,lo8(32)
 1418 0012 01F0      		breq .L112
 1419 0014 8132      		cpi r24,lo8(33)
 1420 0016 01F4      		brne .L114
 1421               	.LSM197:
 1422 0018 913A      		cpi r25,lo8(-95)
 1423 001a 01F4      		brne .L114
 1424               	.LBB193:
 1425               	.LBB194:
 1426               	.LSM198:
 1427 001c 8091 E800 		lds r24,232
 1428 0020 877F      		andi r24,lo8(-9)
 1429 0022 8093 E800 		sts 232,r24
 1430               	.LBE194:
 1431               	.LBE193:
 1432               	.LSM199:
 1433 0026 80E0      		ldi r24,lo8(LineEncoding)
 1434 0028 90E0      		ldi r25,hi8(LineEncoding)
 1435 002a 67E0      		ldi r22,lo8(7)
 1436 002c 70E0      		ldi r23,hi8(7)
 1437 002e 0E94 0000 		call Endpoint_Write_Control_Stream_LE
 1438               	.LBB195:
 1439               	.LBB196:
 1440               	.LSM200:
 1441 0032 8091 E800 		lds r24,232
 1442 0036 8B77      		andi r24,lo8(123)
 1443 0038 8093 E800 		sts 232,r24
 1444 003c 0895      		ret
 1445               	.L112:
 1446               	.LBE196:
 1447               	.LBE195:
 1448               	.LSM201:
 1449 003e 9132      		cpi r25,lo8(33)
 1450 0040 01F4      		brne .L114
 1451               	.LBB197:
 1452               	.LBB198:
 1453               	.LSM202:
 1454 0042 8091 E800 		lds r24,232
 1455 0046 877F      		andi r24,lo8(-9)
 1456 0048 8093 E800 		sts 232,r24
 1457               	.LBE198:
 1458               	.LBE197:
 1459               	.LSM203:
 1460 004c 80E0      		ldi r24,lo8(LineEncoding)
 1461 004e 90E0      		ldi r25,hi8(LineEncoding)
 1462 0050 67E0      		ldi r22,lo8(7)
 1463 0052 70E0      		ldi r23,hi8(7)
 1464 0054 0E94 0000 		call Endpoint_Read_Control_Stream_LE
 1465               	.LBB199:
 1466               	.LBB200:
 1467               	.LSM204:
 1468 0058 8091 E800 		lds r24,232
 1469 005c 8E77      		andi r24,lo8(126)
 1470 005e 8093 E800 		sts 232,r24
 1471               	.L114:
 1472 0062 0895      		ret
 1473               	.LBE200:
 1474               	.LBE199:
 1475               	.LFE107:
 1477               		.section	.text.EVENT_USB_Device_ConfigurationChanged,"ax",@progbits
 1478               	.global	EVENT_USB_Device_ConfigurationChanged
 1480               	EVENT_USB_Device_ConfigurationChanged:
 1481               	.LFB106:
 1482               	.LSM205:
 1483               	/* prologue: function */
 1484               	/* frame size = 0 */
 1485               	.LBB201:
 1486               	.LBB202:
 1487               	.LSM206:
 1488 0000 82E0      		ldi r24,lo8(2)
 1489 0002 61EC      		ldi r22,lo8(-63)
 1490 0004 42E0      		ldi r20,lo8(2)
 1491 0006 0E94 0000 		call Endpoint_ConfigureEndpoint_Prv
 1492               	.LBE202:
 1493               	.LBE201:
 1494               	.LBB203:
 1495               	.LBB204:
 1496 000a 83E0      		ldi r24,lo8(3)
 1497 000c 61E8      		ldi r22,lo8(-127)
 1498 000e 42E1      		ldi r20,lo8(18)
 1499 0010 0E94 0000 		call Endpoint_ConfigureEndpoint_Prv
 1500               	.LBE204:
 1501               	.LBE203:
 1502               	.LBB205:
 1503               	.LBB206:
 1504 0014 84E0      		ldi r24,lo8(4)
 1505 0016 60E8      		ldi r22,lo8(-128)
 1506 0018 42E1      		ldi r20,lo8(18)
 1507 001a 0E94 0000 		call Endpoint_ConfigureEndpoint_Prv
 1508               	/* epilogue start */
 1509               	.LBE206:
 1510               	.LBE205:
 1511               	.LSM207:
 1512 001e 0895      		ret
 1513               	.LFE106:
 1515               		.section	.text.SetupHardware,"ax",@progbits
 1516               	.global	SetupHardware
 1518               	SetupHardware:
 1519               	.LFB104:
 1520               	.LSM208:
 1521               	/* prologue: function */
 1522               	/* frame size = 0 */
 1523               	.LSM209:
 1524 0000 84B7      		in r24,84-32
 1525 0002 877F      		andi r24,lo8(-9)
 1526 0004 84BF      		out 84-32,r24
 1527               	.LSM210:
 1528 0006 88E1      		ldi r24,lo8(24)
 1529               	/* #APP */
 1530               	 ;  166 "Caterina.c" 1
 1531 0008 0FB6      		in __tmp_reg__, __SREG__
 1532 000a F894      		cli
 1533 000c 8093 6000 		sts 96, r24
 1534 0010 1092 6000 		sts 96, __zero_reg__
 1535 0014 0FBE      		out __SREG__,__tmp_reg__
 1536               		
 1537               	 ;  0 "" 2
 1538               	/* #NOAPP */
 1539               	.LBB207:
 1540               	.LSM211:
 1541 0016 20E8      		ldi r18,lo8(-128)
 1542 0018 80E0      		ldi r24,lo8(0)
 1543 001a 90E0      		ldi r25,hi8(0)
 1544               	/* #APP */
 1545               	 ;  169 "Caterina.c" 1
 1546 001c 0FB6      		in __tmp_reg__,__SREG__
 1547 001e F894      		cli
 1548 0020 2093 6100 		sts 97, r18
 1549 0024 8093 6100 		sts 97, r24
 1550 0028 0FBE      		out __SREG__, __tmp_reg__
 1551               	 ;  0 "" 2
 1552               	/* #NOAPP */
 1553               	.LBE207:
 1554               	.LSM212:
 1555 002a 81E0      		ldi r24,lo8(1)
 1556 002c 85BF      		out 85-32,r24
 1557               	.LSM213:
 1558 002e 92E0      		ldi r25,lo8(2)
 1559 0030 95BF      		out 85-32,r25
 1560               	.LSM214:
 1561 0032 279A      		sbi 36-32,7
 1562 0034 259A      		sbi 36-32,5
 1563 0036 269A      		sbi 36-32,6
 1564               	.LSM215:
 1565 0038 E1E6      		ldi r30,lo8(97)
 1566 003a F0E0      		ldi r31,hi8(97)
 1567 003c 2083      		st Z,r18
 1568 003e 1082      		st Z,__zero_reg__
 1569               	.LSM216:
 1570 0040 85B1      		in r24,37-32
 1571 0042 8F67      		ori r24,lo8(127)
 1572 0044 85B9      		out 37-32,r24
 1573               	.LSM217:
 1574 0046 85B1      		in r24,37-32
 1575 0048 8F6D      		ori r24,lo8(-33)
 1576 004a 85B9      		out 37-32,r24
 1577               	.LSM218:
 1578 004c 85B1      		in r24,37-32
 1579 004e 8F6B      		ori r24,lo8(-65)
 1580 0050 85B9      		out 37-32,r24
 1581               	.LSM219:
 1582 0052 1092 8900 		sts 137,__zero_reg__
 1583               	.LSM220:
 1584 0056 8AEF      		ldi r24,lo8(-6)
 1585 0058 8093 8800 		sts 136,r24
 1586               	.LSM221:
 1587 005c 9093 6F00 		sts 111,r25
 1588               	.LSM222:
 1589 0060 83E0      		ldi r24,lo8(3)
 1590 0062 8093 8100 		sts 129,r24
 1591               	.LSM223:
 1592 0066 0E94 0000 		call USB_Init
 1593               	/* epilogue start */
 1594               	.LSM224:
 1595 006a 0895      		ret
 1596               	.LFE104:
 1598               		.section	.text.main,"ax",@progbits
 1599               	.global	main
 1601               	main:
 1602               	.LFB103:
 1603               	.LSM225:
 1604               	/* prologue: function */
 1605               	/* frame size = 0 */
 1606               	.LSM226:
 1607 0000 4091 0008 		lds r20,2048
 1608 0004 5091 0108 		lds r21,(2048)+1
 1609               	.LVL108:
 1610               	.LSM227:
 1611 0008 1092 0108 		sts (2048)+1,__zero_reg__
 1612 000c 1092 0008 		sts 2048,__zero_reg__
 1613               	.LSM228:
 1614 0010 94B7      		in r25,84-32
 1615               	.LVL109:
 1616               	.LSM229:
 1617 0012 14BE      		out 84-32,__zero_reg__
 1618               	.LSM230:
 1619 0014 88E1      		ldi r24,lo8(24)
 1620               	/* #APP */
 1621               	 ;  122 "Caterina.c" 1
 1622 0016 0FB6      		in __tmp_reg__, __SREG__
 1623 0018 F894      		cli
 1624 001a 8093 6000 		sts 96, r24
 1625 001e 1092 6000 		sts 96, __zero_reg__
 1626 0022 0FBE      		out __SREG__,__tmp_reg__
 1627               		
 1628               	 ;  0 "" 2
 1629               	.LSM231:
 1630               	/* #NOAPP */
 1631 0024 292F      		mov r18,r25
 1632 0026 30E0      		ldi r19,lo8(0)
 1633 0028 F901      		movw r30,r18
 1634 002a E270      		andi r30,lo8(2)
 1635 002c F070      		andi r31,hi8(2)
 1636 002e 91FD      		sbrc r25,1
 1637 0030 00C0      		rjmp .L120
 1638               	.LVL110:
 1639               	.LSM232:
 1640 0032 90FF      		sbrs r25,0
 1641 0034 00C0      		rjmp .L121
 1642               	.LBB208:
 1643               	/* #APP */
 1644               	 ;  126 "Caterina.c" 1
 1645 0036 8591      		lpm r24, Z+
 1646 0038 9491      		lpm r25, Z
 1647               		
 1648               	 ;  0 "" 2
 1649               	.LVL111:
 1650               	/* #NOAPP */
 1651               	.LBE208:
 1652 003a 8F5F      		subi r24,lo8(-1)
 1653 003c 9F4F      		sbci r25,hi8(-1)
 1654 003e 01F4      		brne .L126
 1655               	.L121:
 1656               	.LSM233:
 1657 0040 23FF      		sbrs r18,3
 1658 0042 00C0      		rjmp .L120
 1659 0044 8091 0000 		lds r24,bootKey
 1660 0048 9091 0000 		lds r25,(bootKey)+1
 1661               	.LVL112:
 1662 004c 4817      		cp r20,r24
 1663 004e 5907      		cpc r21,r25
 1664 0050 01F0      		breq .L120
 1665               	.LBB209:
 1666 0052 E0E0      		ldi r30,lo8(0)
 1667 0054 F0E0      		ldi r31,hi8(0)
 1668               	.LVL113:
 1669               	/* #APP */
 1670               	 ;  130 "Caterina.c" 1
 1671 0056 8591      		lpm r24, Z+
 1672 0058 9491      		lpm r25, Z
 1673               		
 1674               	 ;  0 "" 2
 1675               	.LVL114:
 1676               	/* #NOAPP */
 1677               	.LBE209:
 1678 005a 8F5F      		subi r24,lo8(-1)
 1679 005c 9F4F      		sbci r25,hi8(-1)
 1680 005e 01F0      		breq .L120
 1681               	.LVL115:
 1682               	.L126:
 1683               	.LSM234:
 1684 0060 0E94 0000 		call StartSketch
 1685               	.LVL116:
 1686               	.L120:
 1687               	.LSM235:
 1688 0064 0E94 0000 		call SetupHardware
 1689               	.LVL117:
 1690               	.LSM236:
 1691               	/* #APP */
 1692               	 ;  139 "Caterina.c" 1
 1693 0068 7894      		sei
 1694               	 ;  0 "" 2
 1695               	.LSM237:
 1696               	/* #NOAPP */
 1697 006a 1092 0000 		sts (Timeout)+1,__zero_reg__
 1698 006e 1092 0000 		sts Timeout,__zero_reg__
 1699 0072 00C0      		rjmp .L122
 1700               	.L124:
 1701               	.LSM238:
 1702 0074 0E94 0000 		call CDC_Task
 1703               	.LSM239:
 1704 0078 0E94 0000 		call USB_USBTask
 1705               	.LSM240:
 1706 007c 8091 0000 		lds r24,Timeout
 1707 0080 9091 0000 		lds r25,(Timeout)+1
 1708 0084 8154      		subi r24,lo8(8001)
 1709 0086 9F41      		sbci r25,hi8(8001)
 1710 0088 00F0      		brlo .L123
 1711               	.LSM241:
 1712 008a 1092 0000 		sts RunBootloader,__zero_reg__
 1713               	.L123:
 1714               	.LSM242:
 1715 008e 0E94 0000 		call LEDPulse
 1716               	.L122:
 1717               	.LSM243:
 1718 0092 8091 0000 		lds r24,RunBootloader
 1719 0096 8823      		tst r24
 1720 0098 01F4      		brne .L124
 1721               	.LBB210:
 1722               	.LBB211:
 1723               	.LSM244:
 1724 009a 8091 E000 		lds r24,224
 1725 009e 8160      		ori r24,lo8(1)
 1726 00a0 8093 E000 		sts 224,r24
 1727               	.LBE211:
 1728               	.LBE210:
 1729               	.LSM245:
 1730 00a4 0E94 0000 		call StartSketch
 1731               	.LSM246:
 1732 00a8 80E0      		ldi r24,lo8(0)
 1733 00aa 90E0      		ldi r25,hi8(0)
 1734               	/* epilogue start */
 1735 00ac 0895      		ret
 1736               	.LFE103:
 1738               	.global	TxLEDPulse
 1739               	.global	TxLEDPulse
 1740               		.section .bss
 1743               	TxLEDPulse:
 1744 0000 0000      		.skip 2,0
 1745               	.global	RxLEDPulse
 1746               	.global	RxLEDPulse
 1749               	RxLEDPulse:
 1750 0002 0000      		.skip 2,0
 1751               	.global	Timeout
 1752               	.global	Timeout
 1755               	Timeout:
 1756 0004 0000      		.skip 2,0
 1757               	.global	bootKey
 1758               		.data
 1761               	bootKey:
 1762 0009 7777      		.word	30583
 1763               	.global	bootKeyPtr
 1766               	bootKeyPtr:
 1767 000b 0008      		.word	2048
 1770               	LineEncoding:
 1771 000d 00        		.byte	0
 1772 000e 00        		.byte	0
 1773 000f 00        		.byte	0
 1774 0010 00        		.byte	0
 1775 0011 00        		.byte	0
 1776 0012 00        		.byte	0
 1777 0013 08        		.byte	8
 1780               	RunBootloader:
 1781 0014 01        		.byte	1
 1782               		.lcomm CurrAddress,4
 1783               		.comm LLEDPulse,2,1
 1880               	.Letext0:
DEFINED SYMBOLS
                            *ABS*:00000000 Caterina.c
C:\Users\Ryan\AppData\Local\Temp/ccMFz3iK.s:2      *ABS*:0000003f __SREG__
C:\Users\Ryan\AppData\Local\Temp/ccMFz3iK.s:3      *ABS*:0000003e __SP_H__
C:\Users\Ryan\AppData\Local\Temp/ccMFz3iK.s:4      *ABS*:0000003d __SP_L__
C:\Users\Ryan\AppData\Local\Temp/ccMFz3iK.s:5      *ABS*:00000034 __CCP__
C:\Users\Ryan\AppData\Local\Temp/ccMFz3iK.s:6      *ABS*:00000000 __tmp_reg__
C:\Users\Ryan\AppData\Local\Temp/ccMFz3iK.s:7      *ABS*:00000001 __zero_reg__
C:\Users\Ryan\AppData\Local\Temp/ccMFz3iK.s:21     .text.StartSketch:00000000 StartSketch
C:\Users\Ryan\AppData\Local\Temp/ccMFz3iK.s:71     .text.LEDPulse:00000000 LEDPulse
                            *COM*:00000002 LLEDPulse
C:\Users\Ryan\AppData\Local\Temp/ccMFz3iK.s:114    .text.__vector_17:00000000 __vector_17
C:\Users\Ryan\AppData\Local\Temp/ccMFz3iK.s:1743   .bss:00000000 TxLEDPulse
C:\Users\Ryan\AppData\Local\Temp/ccMFz3iK.s:1749   .bss:00000002 RxLEDPulse
C:\Users\Ryan\AppData\Local\Temp/ccMFz3iK.s:1755   .bss:00000004 Timeout
C:\Users\Ryan\AppData\Local\Temp/ccMFz3iK.s:207    .text.FetchNextCommandByte:00000000 FetchNextCommandByte
C:\Users\Ryan\AppData\Local\Temp/ccMFz3iK.s:268    .text.WriteNextResponseByte:00000000 WriteNextResponseByte
C:\Users\Ryan\AppData\Local\Temp/ccMFz3iK.s:342    .text.CDC_Task:00000000 CDC_Task
                             .bss:00000006 CurrAddress
C:\Users\Ryan\AppData\Local\Temp/ccMFz3iK.s:1404   .text.EVENT_USB_Device_ControlRequest:00000000 EVENT_USB_Device_ControlRequest
C:\Users\Ryan\AppData\Local\Temp/ccMFz3iK.s:1770   .data:0000000d LineEncoding
C:\Users\Ryan\AppData\Local\Temp/ccMFz3iK.s:1480   .text.EVENT_USB_Device_ConfigurationChanged:00000000 EVENT_USB_Device_ConfigurationChanged
C:\Users\Ryan\AppData\Local\Temp/ccMFz3iK.s:1518   .text.SetupHardware:00000000 SetupHardware
C:\Users\Ryan\AppData\Local\Temp/ccMFz3iK.s:1601   .text.main:00000000 main
C:\Users\Ryan\AppData\Local\Temp/ccMFz3iK.s:1761   .data:00000009 bootKey
C:\Users\Ryan\AppData\Local\Temp/ccMFz3iK.s:1780   .data:00000014 RunBootloader
C:\Users\Ryan\AppData\Local\Temp/ccMFz3iK.s:1766   .data:0000000b bootKeyPtr

UNDEFINED SYMBOLS
__do_copy_data
__do_clear_bss
USB_ControlRequest
Endpoint_Write_Control_Stream_LE
Endpoint_Read_Control_Stream_LE
Endpoint_ConfigureEndpoint_Prv
USB_Init
USB_USBTask
